ARM GAS  c:\Temp\cctGqfAZ.s 			page 1


   1              		.syntax unified
   2              		.cpu cortex-m3
   3              		.fpu softvfp
   4              		.eabi_attribute 20, 1
   5              		.eabi_attribute 21, 1
   6              		.eabi_attribute 23, 3
   7              		.eabi_attribute 24, 1
   8              		.eabi_attribute 25, 1
   9              		.eabi_attribute 26, 1
  10              		.eabi_attribute 30, 6
  11              		.eabi_attribute 18, 4
  12              		.thumb
  13              		.file	"core_cm3.c"
  20 0000 5B010000 		.text
  20      0200BA00 
  20      00000201 
  20      FB0E0D00 
  20      01010101 
  21              	.Ltext0:
  22              		.cfi_sections	.debug_frame
  23              		.align	2
  24              		.global	__get_PSP
  25              		.thumb
  26              		.thumb_func
  27              		.type	__get_PSP, %function
  28              	__get_PSP:
  29              	.LFB0:
  30              		.file 1 "../CMSIS/CM3_V1P30_Core/core_cm3.c"
   1:../CMSIS/CM3_V1P30_Core/core_cm3.c **** /**************************************************************************//**
   2:../CMSIS/CM3_V1P30_Core/core_cm3.c ****  * @file     core_cm3.c
   3:../CMSIS/CM3_V1P30_Core/core_cm3.c ****  * @brief    CMSIS Cortex-M3 Core Peripheral Access Layer Source File
   4:../CMSIS/CM3_V1P30_Core/core_cm3.c ****  * @version  V1.30
   5:../CMSIS/CM3_V1P30_Core/core_cm3.c ****  * @date     30. October 2009
   6:../CMSIS/CM3_V1P30_Core/core_cm3.c ****  *
   7:../CMSIS/CM3_V1P30_Core/core_cm3.c ****  * @note
   8:../CMSIS/CM3_V1P30_Core/core_cm3.c ****  * Copyright (C) 2009 ARM Limited. All rights reserved.
   9:../CMSIS/CM3_V1P30_Core/core_cm3.c ****  *
  10:../CMSIS/CM3_V1P30_Core/core_cm3.c ****  * @par
  11:../CMSIS/CM3_V1P30_Core/core_cm3.c ****  * ARM Limited (ARM) is supplying this software for use with Cortex-M 
  12:../CMSIS/CM3_V1P30_Core/core_cm3.c ****  * processor based microcontrollers.  This file can be freely distributed 
  13:../CMSIS/CM3_V1P30_Core/core_cm3.c ****  * within development tools that are supporting such ARM based processors. 
  14:../CMSIS/CM3_V1P30_Core/core_cm3.c ****  *
  15:../CMSIS/CM3_V1P30_Core/core_cm3.c ****  * @par
  16:../CMSIS/CM3_V1P30_Core/core_cm3.c ****  * THIS SOFTWARE IS PROVIDED "AS IS".  NO WARRANTIES, WHETHER EXPRESS, IMPLIED
  17:../CMSIS/CM3_V1P30_Core/core_cm3.c ****  * OR STATUTORY, INCLUDING, BUT NOT LIMITED TO, IMPLIED WARRANTIES OF
  18:../CMSIS/CM3_V1P30_Core/core_cm3.c ****  * MERCHANTABILITY AND FITNESS FOR A PARTICULAR PURPOSE APPLY TO THIS SOFTWARE.
  19:../CMSIS/CM3_V1P30_Core/core_cm3.c ****  * ARM SHALL NOT, IN ANY CIRCUMSTANCES, BE LIABLE FOR SPECIAL, INCIDENTAL, OR
  20:../CMSIS/CM3_V1P30_Core/core_cm3.c ****  * CONSEQUENTIAL DAMAGES, FOR ANY REASON WHATSOEVER.
  21:../CMSIS/CM3_V1P30_Core/core_cm3.c ****  *
  22:../CMSIS/CM3_V1P30_Core/core_cm3.c ****  ******************************************************************************/
  23:../CMSIS/CM3_V1P30_Core/core_cm3.c **** 
ARM GAS  c:\Temp\cctGqfAZ.s 			page 2


  24:../CMSIS/CM3_V1P30_Core/core_cm3.c **** #include <stdint.h>
  25:../CMSIS/CM3_V1P30_Core/core_cm3.c **** 
  26:../CMSIS/CM3_V1P30_Core/core_cm3.c **** /* define compiler specific symbols */
  27:../CMSIS/CM3_V1P30_Core/core_cm3.c **** #if defined ( __CC_ARM   )
  28:../CMSIS/CM3_V1P30_Core/core_cm3.c ****   #define __ASM            __asm                                      /*!< asm keyword for ARM Comp
  29:../CMSIS/CM3_V1P30_Core/core_cm3.c ****   #define __INLINE         __inline                                   /*!< inline keyword for ARM C
  30:../CMSIS/CM3_V1P30_Core/core_cm3.c **** 
  31:../CMSIS/CM3_V1P30_Core/core_cm3.c **** #elif defined ( __ICCARM__ )
  32:../CMSIS/CM3_V1P30_Core/core_cm3.c ****   #define __ASM           __asm                                       /*!< asm keyword for IAR Comp
  33:../CMSIS/CM3_V1P30_Core/core_cm3.c ****   #define __INLINE        inline                                      /*!< inline keyword for IAR C
  34:../CMSIS/CM3_V1P30_Core/core_cm3.c **** 
  35:../CMSIS/CM3_V1P30_Core/core_cm3.c **** #elif defined   (  __GNUC__  )
  36:../CMSIS/CM3_V1P30_Core/core_cm3.c ****   #define __ASM            __asm                                      /*!< asm keyword for GNU Comp
  37:../CMSIS/CM3_V1P30_Core/core_cm3.c ****   #define __INLINE         inline                                     /*!< inline keyword for GNU C
  38:../CMSIS/CM3_V1P30_Core/core_cm3.c **** 
  39:../CMSIS/CM3_V1P30_Core/core_cm3.c **** #elif defined   (  __TASKING__  )
  40:../CMSIS/CM3_V1P30_Core/core_cm3.c ****   #define __ASM            __asm                                      /*!< asm keyword for TASKING 
  41:../CMSIS/CM3_V1P30_Core/core_cm3.c ****   #define __INLINE         inline                                     /*!< inline keyword for TASKI
  42:../CMSIS/CM3_V1P30_Core/core_cm3.c **** 
  43:../CMSIS/CM3_V1P30_Core/core_cm3.c **** #endif
  44:../CMSIS/CM3_V1P30_Core/core_cm3.c **** 
  45:../CMSIS/CM3_V1P30_Core/core_cm3.c **** 
  46:../CMSIS/CM3_V1P30_Core/core_cm3.c **** /* ###################  Compiler specific Intrinsics  ########################### */
  47:../CMSIS/CM3_V1P30_Core/core_cm3.c **** 
  48:../CMSIS/CM3_V1P30_Core/core_cm3.c **** #if defined ( __CC_ARM   ) /*------------------RealView Compiler -----------------*/
  49:../CMSIS/CM3_V1P30_Core/core_cm3.c **** /* ARM armcc specific functions */
  50:../CMSIS/CM3_V1P30_Core/core_cm3.c **** 
  51:../CMSIS/CM3_V1P30_Core/core_cm3.c **** /**
  52:../CMSIS/CM3_V1P30_Core/core_cm3.c ****  * @brief  Return the Process Stack Pointer
  53:../CMSIS/CM3_V1P30_Core/core_cm3.c ****  *
  54:../CMSIS/CM3_V1P30_Core/core_cm3.c ****  * @return ProcessStackPointer
  55:../CMSIS/CM3_V1P30_Core/core_cm3.c ****  *
  56:../CMSIS/CM3_V1P30_Core/core_cm3.c ****  * Return the actual process stack pointer
  57:../CMSIS/CM3_V1P30_Core/core_cm3.c ****  */
  58:../CMSIS/CM3_V1P30_Core/core_cm3.c **** __ASM uint32_t __get_PSP(void)
  59:../CMSIS/CM3_V1P30_Core/core_cm3.c **** {
  60:../CMSIS/CM3_V1P30_Core/core_cm3.c ****   mrs r0, psp
  61:../CMSIS/CM3_V1P30_Core/core_cm3.c ****   bx lr
  62:../CMSIS/CM3_V1P30_Core/core_cm3.c **** }
  63:../CMSIS/CM3_V1P30_Core/core_cm3.c **** 
  64:../CMSIS/CM3_V1P30_Core/core_cm3.c **** /**
  65:../CMSIS/CM3_V1P30_Core/core_cm3.c ****  * @brief  Set the Process Stack Pointer
  66:../CMSIS/CM3_V1P30_Core/core_cm3.c ****  *
  67:../CMSIS/CM3_V1P30_Core/core_cm3.c ****  * @param  topOfProcStack  Process Stack Pointer
  68:../CMSIS/CM3_V1P30_Core/core_cm3.c ****  *
  69:../CMSIS/CM3_V1P30_Core/core_cm3.c ****  * Assign the value ProcessStackPointer to the MSP 
  70:../CMSIS/CM3_V1P30_Core/core_cm3.c ****  * (process stack pointer) Cortex processor register
  71:../CMSIS/CM3_V1P30_Core/core_cm3.c ****  */
  72:../CMSIS/CM3_V1P30_Core/core_cm3.c **** __ASM void __set_PSP(uint32_t topOfProcStack)
  73:../CMSIS/CM3_V1P30_Core/core_cm3.c **** {
  74:../CMSIS/CM3_V1P30_Core/core_cm3.c ****   msr psp, r0
  75:../CMSIS/CM3_V1P30_Core/core_cm3.c ****   bx lr
  76:../CMSIS/CM3_V1P30_Core/core_cm3.c **** }
  77:../CMSIS/CM3_V1P30_Core/core_cm3.c **** 
  78:../CMSIS/CM3_V1P30_Core/core_cm3.c **** /**
  79:../CMSIS/CM3_V1P30_Core/core_cm3.c ****  * @brief  Return the Main Stack Pointer
  80:../CMSIS/CM3_V1P30_Core/core_cm3.c ****  *
ARM GAS  c:\Temp\cctGqfAZ.s 			page 3


  81:../CMSIS/CM3_V1P30_Core/core_cm3.c ****  * @return Main Stack Pointer
  82:../CMSIS/CM3_V1P30_Core/core_cm3.c ****  *
  83:../CMSIS/CM3_V1P30_Core/core_cm3.c ****  * Return the current value of the MSP (main stack pointer)
  84:../CMSIS/CM3_V1P30_Core/core_cm3.c ****  * Cortex processor register
  85:../CMSIS/CM3_V1P30_Core/core_cm3.c ****  */
  86:../CMSIS/CM3_V1P30_Core/core_cm3.c **** __ASM uint32_t __get_MSP(void)
  87:../CMSIS/CM3_V1P30_Core/core_cm3.c **** {
  88:../CMSIS/CM3_V1P30_Core/core_cm3.c ****   mrs r0, msp
  89:../CMSIS/CM3_V1P30_Core/core_cm3.c ****   bx lr
  90:../CMSIS/CM3_V1P30_Core/core_cm3.c **** }
  91:../CMSIS/CM3_V1P30_Core/core_cm3.c **** 
  92:../CMSIS/CM3_V1P30_Core/core_cm3.c **** /**
  93:../CMSIS/CM3_V1P30_Core/core_cm3.c ****  * @brief  Set the Main Stack Pointer
  94:../CMSIS/CM3_V1P30_Core/core_cm3.c ****  *
  95:../CMSIS/CM3_V1P30_Core/core_cm3.c ****  * @param  topOfMainStack  Main Stack Pointer
  96:../CMSIS/CM3_V1P30_Core/core_cm3.c ****  *
  97:../CMSIS/CM3_V1P30_Core/core_cm3.c ****  * Assign the value mainStackPointer to the MSP 
  98:../CMSIS/CM3_V1P30_Core/core_cm3.c ****  * (main stack pointer) Cortex processor register
  99:../CMSIS/CM3_V1P30_Core/core_cm3.c ****  */
 100:../CMSIS/CM3_V1P30_Core/core_cm3.c **** __ASM void __set_MSP(uint32_t mainStackPointer)
 101:../CMSIS/CM3_V1P30_Core/core_cm3.c **** {
 102:../CMSIS/CM3_V1P30_Core/core_cm3.c ****   msr msp, r0
 103:../CMSIS/CM3_V1P30_Core/core_cm3.c ****   bx lr
 104:../CMSIS/CM3_V1P30_Core/core_cm3.c **** }
 105:../CMSIS/CM3_V1P30_Core/core_cm3.c **** 
 106:../CMSIS/CM3_V1P30_Core/core_cm3.c **** /**
 107:../CMSIS/CM3_V1P30_Core/core_cm3.c ****  * @brief  Reverse byte order in unsigned short value
 108:../CMSIS/CM3_V1P30_Core/core_cm3.c ****  *
 109:../CMSIS/CM3_V1P30_Core/core_cm3.c ****  * @param   value  value to reverse
 110:../CMSIS/CM3_V1P30_Core/core_cm3.c ****  * @return         reversed value
 111:../CMSIS/CM3_V1P30_Core/core_cm3.c ****  *
 112:../CMSIS/CM3_V1P30_Core/core_cm3.c ****  * Reverse byte order in unsigned short value
 113:../CMSIS/CM3_V1P30_Core/core_cm3.c ****  */
 114:../CMSIS/CM3_V1P30_Core/core_cm3.c **** __ASM uint32_t __REV16(uint16_t value)
 115:../CMSIS/CM3_V1P30_Core/core_cm3.c **** {
 116:../CMSIS/CM3_V1P30_Core/core_cm3.c ****   rev16 r0, r0
 117:../CMSIS/CM3_V1P30_Core/core_cm3.c ****   bx lr
 118:../CMSIS/CM3_V1P30_Core/core_cm3.c **** }
 119:../CMSIS/CM3_V1P30_Core/core_cm3.c **** 
 120:../CMSIS/CM3_V1P30_Core/core_cm3.c **** /**
 121:../CMSIS/CM3_V1P30_Core/core_cm3.c ****  * @brief  Reverse byte order in signed short value with sign extension to integer
 122:../CMSIS/CM3_V1P30_Core/core_cm3.c ****  *
 123:../CMSIS/CM3_V1P30_Core/core_cm3.c ****  * @param   value  value to reverse
 124:../CMSIS/CM3_V1P30_Core/core_cm3.c ****  * @return         reversed value
 125:../CMSIS/CM3_V1P30_Core/core_cm3.c ****  *
 126:../CMSIS/CM3_V1P30_Core/core_cm3.c ****  * Reverse byte order in signed short value with sign extension to integer
 127:../CMSIS/CM3_V1P30_Core/core_cm3.c ****  */
 128:../CMSIS/CM3_V1P30_Core/core_cm3.c **** __ASM int32_t __REVSH(int16_t value)
 129:../CMSIS/CM3_V1P30_Core/core_cm3.c **** {
 130:../CMSIS/CM3_V1P30_Core/core_cm3.c ****   revsh r0, r0
 131:../CMSIS/CM3_V1P30_Core/core_cm3.c ****   bx lr
 132:../CMSIS/CM3_V1P30_Core/core_cm3.c **** }
 133:../CMSIS/CM3_V1P30_Core/core_cm3.c **** 
 134:../CMSIS/CM3_V1P30_Core/core_cm3.c **** 
 135:../CMSIS/CM3_V1P30_Core/core_cm3.c **** #if (__ARMCC_VERSION < 400000)
 136:../CMSIS/CM3_V1P30_Core/core_cm3.c **** 
 137:../CMSIS/CM3_V1P30_Core/core_cm3.c **** /**
ARM GAS  c:\Temp\cctGqfAZ.s 			page 4


 138:../CMSIS/CM3_V1P30_Core/core_cm3.c ****  * @brief  Remove the exclusive lock created by ldrex
 139:../CMSIS/CM3_V1P30_Core/core_cm3.c ****  *
 140:../CMSIS/CM3_V1P30_Core/core_cm3.c ****  * Removes the exclusive lock which is created by ldrex.
 141:../CMSIS/CM3_V1P30_Core/core_cm3.c ****  */
 142:../CMSIS/CM3_V1P30_Core/core_cm3.c **** __ASM void __CLREX(void)
 143:../CMSIS/CM3_V1P30_Core/core_cm3.c **** {
 144:../CMSIS/CM3_V1P30_Core/core_cm3.c ****   clrex
 145:../CMSIS/CM3_V1P30_Core/core_cm3.c **** }
 146:../CMSIS/CM3_V1P30_Core/core_cm3.c **** 
 147:../CMSIS/CM3_V1P30_Core/core_cm3.c **** /**
 148:../CMSIS/CM3_V1P30_Core/core_cm3.c ****  * @brief  Return the Base Priority value
 149:../CMSIS/CM3_V1P30_Core/core_cm3.c ****  *
 150:../CMSIS/CM3_V1P30_Core/core_cm3.c ****  * @return BasePriority
 151:../CMSIS/CM3_V1P30_Core/core_cm3.c ****  *
 152:../CMSIS/CM3_V1P30_Core/core_cm3.c ****  * Return the content of the base priority register
 153:../CMSIS/CM3_V1P30_Core/core_cm3.c ****  */
 154:../CMSIS/CM3_V1P30_Core/core_cm3.c **** __ASM uint32_t  __get_BASEPRI(void)
 155:../CMSIS/CM3_V1P30_Core/core_cm3.c **** {
 156:../CMSIS/CM3_V1P30_Core/core_cm3.c ****   mrs r0, basepri
 157:../CMSIS/CM3_V1P30_Core/core_cm3.c ****   bx lr
 158:../CMSIS/CM3_V1P30_Core/core_cm3.c **** }
 159:../CMSIS/CM3_V1P30_Core/core_cm3.c **** 
 160:../CMSIS/CM3_V1P30_Core/core_cm3.c **** /**
 161:../CMSIS/CM3_V1P30_Core/core_cm3.c ****  * @brief  Set the Base Priority value
 162:../CMSIS/CM3_V1P30_Core/core_cm3.c ****  *
 163:../CMSIS/CM3_V1P30_Core/core_cm3.c ****  * @param  basePri  BasePriority
 164:../CMSIS/CM3_V1P30_Core/core_cm3.c ****  *
 165:../CMSIS/CM3_V1P30_Core/core_cm3.c ****  * Set the base priority register
 166:../CMSIS/CM3_V1P30_Core/core_cm3.c ****  */
 167:../CMSIS/CM3_V1P30_Core/core_cm3.c **** __ASM void __set_BASEPRI(uint32_t basePri)
 168:../CMSIS/CM3_V1P30_Core/core_cm3.c **** {
 169:../CMSIS/CM3_V1P30_Core/core_cm3.c ****   msr basepri, r0
 170:../CMSIS/CM3_V1P30_Core/core_cm3.c ****   bx lr
 171:../CMSIS/CM3_V1P30_Core/core_cm3.c **** }
 172:../CMSIS/CM3_V1P30_Core/core_cm3.c **** 
 173:../CMSIS/CM3_V1P30_Core/core_cm3.c **** /**
 174:../CMSIS/CM3_V1P30_Core/core_cm3.c ****  * @brief  Return the Priority Mask value
 175:../CMSIS/CM3_V1P30_Core/core_cm3.c ****  *
 176:../CMSIS/CM3_V1P30_Core/core_cm3.c ****  * @return PriMask
 177:../CMSIS/CM3_V1P30_Core/core_cm3.c ****  *
 178:../CMSIS/CM3_V1P30_Core/core_cm3.c ****  * Return state of the priority mask bit from the priority mask register
 179:../CMSIS/CM3_V1P30_Core/core_cm3.c ****  */
 180:../CMSIS/CM3_V1P30_Core/core_cm3.c **** __ASM uint32_t __get_PRIMASK(void)
 181:../CMSIS/CM3_V1P30_Core/core_cm3.c **** {
 182:../CMSIS/CM3_V1P30_Core/core_cm3.c ****   mrs r0, primask
 183:../CMSIS/CM3_V1P30_Core/core_cm3.c ****   bx lr
 184:../CMSIS/CM3_V1P30_Core/core_cm3.c **** }
 185:../CMSIS/CM3_V1P30_Core/core_cm3.c **** 
 186:../CMSIS/CM3_V1P30_Core/core_cm3.c **** /**
 187:../CMSIS/CM3_V1P30_Core/core_cm3.c ****  * @brief  Set the Priority Mask value
 188:../CMSIS/CM3_V1P30_Core/core_cm3.c ****  *
 189:../CMSIS/CM3_V1P30_Core/core_cm3.c ****  * @param  priMask  PriMask
 190:../CMSIS/CM3_V1P30_Core/core_cm3.c ****  *
 191:../CMSIS/CM3_V1P30_Core/core_cm3.c ****  * Set the priority mask bit in the priority mask register
 192:../CMSIS/CM3_V1P30_Core/core_cm3.c ****  */
 193:../CMSIS/CM3_V1P30_Core/core_cm3.c **** __ASM void __set_PRIMASK(uint32_t priMask)
 194:../CMSIS/CM3_V1P30_Core/core_cm3.c **** {
ARM GAS  c:\Temp\cctGqfAZ.s 			page 5


 195:../CMSIS/CM3_V1P30_Core/core_cm3.c ****   msr primask, r0
 196:../CMSIS/CM3_V1P30_Core/core_cm3.c ****   bx lr
 197:../CMSIS/CM3_V1P30_Core/core_cm3.c **** }
 198:../CMSIS/CM3_V1P30_Core/core_cm3.c **** 
 199:../CMSIS/CM3_V1P30_Core/core_cm3.c **** /**
 200:../CMSIS/CM3_V1P30_Core/core_cm3.c ****  * @brief  Return the Fault Mask value
 201:../CMSIS/CM3_V1P30_Core/core_cm3.c ****  *
 202:../CMSIS/CM3_V1P30_Core/core_cm3.c ****  * @return FaultMask
 203:../CMSIS/CM3_V1P30_Core/core_cm3.c ****  *
 204:../CMSIS/CM3_V1P30_Core/core_cm3.c ****  * Return the content of the fault mask register
 205:../CMSIS/CM3_V1P30_Core/core_cm3.c ****  */
 206:../CMSIS/CM3_V1P30_Core/core_cm3.c **** __ASM uint32_t  __get_FAULTMASK(void)
 207:../CMSIS/CM3_V1P30_Core/core_cm3.c **** {
 208:../CMSIS/CM3_V1P30_Core/core_cm3.c ****   mrs r0, faultmask
 209:../CMSIS/CM3_V1P30_Core/core_cm3.c ****   bx lr
 210:../CMSIS/CM3_V1P30_Core/core_cm3.c **** }
 211:../CMSIS/CM3_V1P30_Core/core_cm3.c **** 
 212:../CMSIS/CM3_V1P30_Core/core_cm3.c **** /**
 213:../CMSIS/CM3_V1P30_Core/core_cm3.c ****  * @brief  Set the Fault Mask value
 214:../CMSIS/CM3_V1P30_Core/core_cm3.c ****  *
 215:../CMSIS/CM3_V1P30_Core/core_cm3.c ****  * @param  faultMask  faultMask value
 216:../CMSIS/CM3_V1P30_Core/core_cm3.c ****  *
 217:../CMSIS/CM3_V1P30_Core/core_cm3.c ****  * Set the fault mask register
 218:../CMSIS/CM3_V1P30_Core/core_cm3.c ****  */
 219:../CMSIS/CM3_V1P30_Core/core_cm3.c **** __ASM void __set_FAULTMASK(uint32_t faultMask)
 220:../CMSIS/CM3_V1P30_Core/core_cm3.c **** {
 221:../CMSIS/CM3_V1P30_Core/core_cm3.c ****   msr faultmask, r0
 222:../CMSIS/CM3_V1P30_Core/core_cm3.c ****   bx lr
 223:../CMSIS/CM3_V1P30_Core/core_cm3.c **** }
 224:../CMSIS/CM3_V1P30_Core/core_cm3.c **** 
 225:../CMSIS/CM3_V1P30_Core/core_cm3.c **** /**
 226:../CMSIS/CM3_V1P30_Core/core_cm3.c ****  * @brief  Return the Control Register value
 227:../CMSIS/CM3_V1P30_Core/core_cm3.c ****  * 
 228:../CMSIS/CM3_V1P30_Core/core_cm3.c ****  * @return Control value
 229:../CMSIS/CM3_V1P30_Core/core_cm3.c ****  *
 230:../CMSIS/CM3_V1P30_Core/core_cm3.c ****  * Return the content of the control register
 231:../CMSIS/CM3_V1P30_Core/core_cm3.c ****  */
 232:../CMSIS/CM3_V1P30_Core/core_cm3.c **** __ASM uint32_t __get_CONTROL(void)
 233:../CMSIS/CM3_V1P30_Core/core_cm3.c **** {
 234:../CMSIS/CM3_V1P30_Core/core_cm3.c ****   mrs r0, control
 235:../CMSIS/CM3_V1P30_Core/core_cm3.c ****   bx lr
 236:../CMSIS/CM3_V1P30_Core/core_cm3.c **** }
 237:../CMSIS/CM3_V1P30_Core/core_cm3.c **** 
 238:../CMSIS/CM3_V1P30_Core/core_cm3.c **** /**
 239:../CMSIS/CM3_V1P30_Core/core_cm3.c ****  * @brief  Set the Control Register value
 240:../CMSIS/CM3_V1P30_Core/core_cm3.c ****  *
 241:../CMSIS/CM3_V1P30_Core/core_cm3.c ****  * @param  control  Control value
 242:../CMSIS/CM3_V1P30_Core/core_cm3.c ****  *
 243:../CMSIS/CM3_V1P30_Core/core_cm3.c ****  * Set the control register
 244:../CMSIS/CM3_V1P30_Core/core_cm3.c ****  */
 245:../CMSIS/CM3_V1P30_Core/core_cm3.c **** __ASM void __set_CONTROL(uint32_t control)
 246:../CMSIS/CM3_V1P30_Core/core_cm3.c **** {
 247:../CMSIS/CM3_V1P30_Core/core_cm3.c ****   msr control, r0
 248:../CMSIS/CM3_V1P30_Core/core_cm3.c ****   bx lr
 249:../CMSIS/CM3_V1P30_Core/core_cm3.c **** }
 250:../CMSIS/CM3_V1P30_Core/core_cm3.c **** 
 251:../CMSIS/CM3_V1P30_Core/core_cm3.c **** #endif /* __ARMCC_VERSION  */ 
ARM GAS  c:\Temp\cctGqfAZ.s 			page 6


 252:../CMSIS/CM3_V1P30_Core/core_cm3.c **** 
 253:../CMSIS/CM3_V1P30_Core/core_cm3.c **** 
 254:../CMSIS/CM3_V1P30_Core/core_cm3.c **** 
 255:../CMSIS/CM3_V1P30_Core/core_cm3.c **** #elif (defined (__ICCARM__)) /*------------------ ICC Compiler -------------------*/
 256:../CMSIS/CM3_V1P30_Core/core_cm3.c **** /* IAR iccarm specific functions */
 257:../CMSIS/CM3_V1P30_Core/core_cm3.c **** #pragma diag_suppress=Pe940
 258:../CMSIS/CM3_V1P30_Core/core_cm3.c **** 
 259:../CMSIS/CM3_V1P30_Core/core_cm3.c **** /**
 260:../CMSIS/CM3_V1P30_Core/core_cm3.c ****  * @brief  Return the Process Stack Pointer
 261:../CMSIS/CM3_V1P30_Core/core_cm3.c ****  *
 262:../CMSIS/CM3_V1P30_Core/core_cm3.c ****  * @return ProcessStackPointer
 263:../CMSIS/CM3_V1P30_Core/core_cm3.c ****  *
 264:../CMSIS/CM3_V1P30_Core/core_cm3.c ****  * Return the actual process stack pointer
 265:../CMSIS/CM3_V1P30_Core/core_cm3.c ****  */
 266:../CMSIS/CM3_V1P30_Core/core_cm3.c **** uint32_t __get_PSP(void)
 267:../CMSIS/CM3_V1P30_Core/core_cm3.c **** {
 268:../CMSIS/CM3_V1P30_Core/core_cm3.c ****   __ASM("mrs r0, psp");
 269:../CMSIS/CM3_V1P30_Core/core_cm3.c ****   __ASM("bx lr");
 270:../CMSIS/CM3_V1P30_Core/core_cm3.c **** }
 271:../CMSIS/CM3_V1P30_Core/core_cm3.c **** 
 272:../CMSIS/CM3_V1P30_Core/core_cm3.c **** /**
 273:../CMSIS/CM3_V1P30_Core/core_cm3.c ****  * @brief  Set the Process Stack Pointer
 274:../CMSIS/CM3_V1P30_Core/core_cm3.c ****  *
 275:../CMSIS/CM3_V1P30_Core/core_cm3.c ****  * @param  topOfProcStack  Process Stack Pointer
 276:../CMSIS/CM3_V1P30_Core/core_cm3.c ****  *
 277:../CMSIS/CM3_V1P30_Core/core_cm3.c ****  * Assign the value ProcessStackPointer to the MSP 
 278:../CMSIS/CM3_V1P30_Core/core_cm3.c ****  * (process stack pointer) Cortex processor register
 279:../CMSIS/CM3_V1P30_Core/core_cm3.c ****  */
 280:../CMSIS/CM3_V1P30_Core/core_cm3.c **** void __set_PSP(uint32_t topOfProcStack)
 281:../CMSIS/CM3_V1P30_Core/core_cm3.c **** {
 282:../CMSIS/CM3_V1P30_Core/core_cm3.c ****   __ASM("msr psp, r0");
 283:../CMSIS/CM3_V1P30_Core/core_cm3.c ****   __ASM("bx lr");
 284:../CMSIS/CM3_V1P30_Core/core_cm3.c **** }
 285:../CMSIS/CM3_V1P30_Core/core_cm3.c **** 
 286:../CMSIS/CM3_V1P30_Core/core_cm3.c **** /**
 287:../CMSIS/CM3_V1P30_Core/core_cm3.c ****  * @brief  Return the Main Stack Pointer
 288:../CMSIS/CM3_V1P30_Core/core_cm3.c ****  *
 289:../CMSIS/CM3_V1P30_Core/core_cm3.c ****  * @return Main Stack Pointer
 290:../CMSIS/CM3_V1P30_Core/core_cm3.c ****  *
 291:../CMSIS/CM3_V1P30_Core/core_cm3.c ****  * Return the current value of the MSP (main stack pointer)
 292:../CMSIS/CM3_V1P30_Core/core_cm3.c ****  * Cortex processor register
 293:../CMSIS/CM3_V1P30_Core/core_cm3.c ****  */
 294:../CMSIS/CM3_V1P30_Core/core_cm3.c **** uint32_t __get_MSP(void)
 295:../CMSIS/CM3_V1P30_Core/core_cm3.c **** {
 296:../CMSIS/CM3_V1P30_Core/core_cm3.c ****   __ASM("mrs r0, msp");
 297:../CMSIS/CM3_V1P30_Core/core_cm3.c ****   __ASM("bx lr");
 298:../CMSIS/CM3_V1P30_Core/core_cm3.c **** }
 299:../CMSIS/CM3_V1P30_Core/core_cm3.c **** 
 300:../CMSIS/CM3_V1P30_Core/core_cm3.c **** /**
 301:../CMSIS/CM3_V1P30_Core/core_cm3.c ****  * @brief  Set the Main Stack Pointer
 302:../CMSIS/CM3_V1P30_Core/core_cm3.c ****  *
 303:../CMSIS/CM3_V1P30_Core/core_cm3.c ****  * @param  topOfMainStack  Main Stack Pointer
 304:../CMSIS/CM3_V1P30_Core/core_cm3.c ****  *
 305:../CMSIS/CM3_V1P30_Core/core_cm3.c ****  * Assign the value mainStackPointer to the MSP 
 306:../CMSIS/CM3_V1P30_Core/core_cm3.c ****  * (main stack pointer) Cortex processor register
 307:../CMSIS/CM3_V1P30_Core/core_cm3.c ****  */
 308:../CMSIS/CM3_V1P30_Core/core_cm3.c **** void __set_MSP(uint32_t topOfMainStack)
ARM GAS  c:\Temp\cctGqfAZ.s 			page 7


 309:../CMSIS/CM3_V1P30_Core/core_cm3.c **** {
 310:../CMSIS/CM3_V1P30_Core/core_cm3.c ****   __ASM("msr msp, r0");
 311:../CMSIS/CM3_V1P30_Core/core_cm3.c ****   __ASM("bx lr");
 312:../CMSIS/CM3_V1P30_Core/core_cm3.c **** }
 313:../CMSIS/CM3_V1P30_Core/core_cm3.c **** 
 314:../CMSIS/CM3_V1P30_Core/core_cm3.c **** /**
 315:../CMSIS/CM3_V1P30_Core/core_cm3.c ****  * @brief  Reverse byte order in unsigned short value
 316:../CMSIS/CM3_V1P30_Core/core_cm3.c ****  *
 317:../CMSIS/CM3_V1P30_Core/core_cm3.c ****  * @param  value  value to reverse
 318:../CMSIS/CM3_V1P30_Core/core_cm3.c ****  * @return        reversed value
 319:../CMSIS/CM3_V1P30_Core/core_cm3.c ****  *
 320:../CMSIS/CM3_V1P30_Core/core_cm3.c ****  * Reverse byte order in unsigned short value
 321:../CMSIS/CM3_V1P30_Core/core_cm3.c ****  */
 322:../CMSIS/CM3_V1P30_Core/core_cm3.c **** uint32_t __REV16(uint16_t value)
 323:../CMSIS/CM3_V1P30_Core/core_cm3.c **** {
 324:../CMSIS/CM3_V1P30_Core/core_cm3.c ****   __ASM("rev16 r0, r0");
 325:../CMSIS/CM3_V1P30_Core/core_cm3.c ****   __ASM("bx lr");
 326:../CMSIS/CM3_V1P30_Core/core_cm3.c **** }
 327:../CMSIS/CM3_V1P30_Core/core_cm3.c **** 
 328:../CMSIS/CM3_V1P30_Core/core_cm3.c **** /**
 329:../CMSIS/CM3_V1P30_Core/core_cm3.c ****  * @brief  Reverse bit order of value
 330:../CMSIS/CM3_V1P30_Core/core_cm3.c ****  *
 331:../CMSIS/CM3_V1P30_Core/core_cm3.c ****  * @param  value  value to reverse
 332:../CMSIS/CM3_V1P30_Core/core_cm3.c ****  * @return        reversed value
 333:../CMSIS/CM3_V1P30_Core/core_cm3.c ****  *
 334:../CMSIS/CM3_V1P30_Core/core_cm3.c ****  * Reverse bit order of value
 335:../CMSIS/CM3_V1P30_Core/core_cm3.c ****  */
 336:../CMSIS/CM3_V1P30_Core/core_cm3.c **** uint32_t __RBIT(uint32_t value)
 337:../CMSIS/CM3_V1P30_Core/core_cm3.c **** {
 338:../CMSIS/CM3_V1P30_Core/core_cm3.c ****   __ASM("rbit r0, r0");
 339:../CMSIS/CM3_V1P30_Core/core_cm3.c ****   __ASM("bx lr");
 340:../CMSIS/CM3_V1P30_Core/core_cm3.c **** }
 341:../CMSIS/CM3_V1P30_Core/core_cm3.c **** 
 342:../CMSIS/CM3_V1P30_Core/core_cm3.c **** /**
 343:../CMSIS/CM3_V1P30_Core/core_cm3.c ****  * @brief  LDR Exclusive (8 bit)
 344:../CMSIS/CM3_V1P30_Core/core_cm3.c ****  *
 345:../CMSIS/CM3_V1P30_Core/core_cm3.c ****  * @param  *addr  address pointer
 346:../CMSIS/CM3_V1P30_Core/core_cm3.c ****  * @return        value of (*address)
 347:../CMSIS/CM3_V1P30_Core/core_cm3.c ****  *
 348:../CMSIS/CM3_V1P30_Core/core_cm3.c ****  * Exclusive LDR command for 8 bit values)
 349:../CMSIS/CM3_V1P30_Core/core_cm3.c ****  */
 350:../CMSIS/CM3_V1P30_Core/core_cm3.c **** uint8_t __LDREXB(uint8_t *addr)
 351:../CMSIS/CM3_V1P30_Core/core_cm3.c **** {
 352:../CMSIS/CM3_V1P30_Core/core_cm3.c ****   __ASM("ldrexb r0, [r0]");
 353:../CMSIS/CM3_V1P30_Core/core_cm3.c ****   __ASM("bx lr"); 
 354:../CMSIS/CM3_V1P30_Core/core_cm3.c **** }
 355:../CMSIS/CM3_V1P30_Core/core_cm3.c **** 
 356:../CMSIS/CM3_V1P30_Core/core_cm3.c **** /**
 357:../CMSIS/CM3_V1P30_Core/core_cm3.c ****  * @brief  LDR Exclusive (16 bit)
 358:../CMSIS/CM3_V1P30_Core/core_cm3.c ****  *
 359:../CMSIS/CM3_V1P30_Core/core_cm3.c ****  * @param  *addr  address pointer
 360:../CMSIS/CM3_V1P30_Core/core_cm3.c ****  * @return        value of (*address)
 361:../CMSIS/CM3_V1P30_Core/core_cm3.c ****  *
 362:../CMSIS/CM3_V1P30_Core/core_cm3.c ****  * Exclusive LDR command for 16 bit values
 363:../CMSIS/CM3_V1P30_Core/core_cm3.c ****  */
 364:../CMSIS/CM3_V1P30_Core/core_cm3.c **** uint16_t __LDREXH(uint16_t *addr)
 365:../CMSIS/CM3_V1P30_Core/core_cm3.c **** {
ARM GAS  c:\Temp\cctGqfAZ.s 			page 8


 366:../CMSIS/CM3_V1P30_Core/core_cm3.c ****   __ASM("ldrexh r0, [r0]");
 367:../CMSIS/CM3_V1P30_Core/core_cm3.c ****   __ASM("bx lr");
 368:../CMSIS/CM3_V1P30_Core/core_cm3.c **** }
 369:../CMSIS/CM3_V1P30_Core/core_cm3.c **** 
 370:../CMSIS/CM3_V1P30_Core/core_cm3.c **** /**
 371:../CMSIS/CM3_V1P30_Core/core_cm3.c ****  * @brief  LDR Exclusive (32 bit)
 372:../CMSIS/CM3_V1P30_Core/core_cm3.c ****  *
 373:../CMSIS/CM3_V1P30_Core/core_cm3.c ****  * @param  *addr  address pointer
 374:../CMSIS/CM3_V1P30_Core/core_cm3.c ****  * @return        value of (*address)
 375:../CMSIS/CM3_V1P30_Core/core_cm3.c ****  *
 376:../CMSIS/CM3_V1P30_Core/core_cm3.c ****  * Exclusive LDR command for 32 bit values
 377:../CMSIS/CM3_V1P30_Core/core_cm3.c ****  */
 378:../CMSIS/CM3_V1P30_Core/core_cm3.c **** uint32_t __LDREXW(uint32_t *addr)
 379:../CMSIS/CM3_V1P30_Core/core_cm3.c **** {
 380:../CMSIS/CM3_V1P30_Core/core_cm3.c ****   __ASM("ldrex r0, [r0]");
 381:../CMSIS/CM3_V1P30_Core/core_cm3.c ****   __ASM("bx lr");
 382:../CMSIS/CM3_V1P30_Core/core_cm3.c **** }
 383:../CMSIS/CM3_V1P30_Core/core_cm3.c **** 
 384:../CMSIS/CM3_V1P30_Core/core_cm3.c **** /**
 385:../CMSIS/CM3_V1P30_Core/core_cm3.c ****  * @brief  STR Exclusive (8 bit)
 386:../CMSIS/CM3_V1P30_Core/core_cm3.c ****  *
 387:../CMSIS/CM3_V1P30_Core/core_cm3.c ****  * @param  value  value to store
 388:../CMSIS/CM3_V1P30_Core/core_cm3.c ****  * @param  *addr  address pointer
 389:../CMSIS/CM3_V1P30_Core/core_cm3.c ****  * @return        successful / failed
 390:../CMSIS/CM3_V1P30_Core/core_cm3.c ****  *
 391:../CMSIS/CM3_V1P30_Core/core_cm3.c ****  * Exclusive STR command for 8 bit values
 392:../CMSIS/CM3_V1P30_Core/core_cm3.c ****  */
 393:../CMSIS/CM3_V1P30_Core/core_cm3.c **** uint32_t __STREXB(uint8_t value, uint8_t *addr)
 394:../CMSIS/CM3_V1P30_Core/core_cm3.c **** {
 395:../CMSIS/CM3_V1P30_Core/core_cm3.c ****   __ASM("strexb r0, r0, [r1]");
 396:../CMSIS/CM3_V1P30_Core/core_cm3.c ****   __ASM("bx lr");
 397:../CMSIS/CM3_V1P30_Core/core_cm3.c **** }
 398:../CMSIS/CM3_V1P30_Core/core_cm3.c **** 
 399:../CMSIS/CM3_V1P30_Core/core_cm3.c **** /**
 400:../CMSIS/CM3_V1P30_Core/core_cm3.c ****  * @brief  STR Exclusive (16 bit)
 401:../CMSIS/CM3_V1P30_Core/core_cm3.c ****  *
 402:../CMSIS/CM3_V1P30_Core/core_cm3.c ****  * @param  value  value to store
 403:../CMSIS/CM3_V1P30_Core/core_cm3.c ****  * @param  *addr  address pointer
 404:../CMSIS/CM3_V1P30_Core/core_cm3.c ****  * @return        successful / failed
 405:../CMSIS/CM3_V1P30_Core/core_cm3.c ****  *
 406:../CMSIS/CM3_V1P30_Core/core_cm3.c ****  * Exclusive STR command for 16 bit values
 407:../CMSIS/CM3_V1P30_Core/core_cm3.c ****  */
 408:../CMSIS/CM3_V1P30_Core/core_cm3.c **** uint32_t __STREXH(uint16_t value, uint16_t *addr)
 409:../CMSIS/CM3_V1P30_Core/core_cm3.c **** {
 410:../CMSIS/CM3_V1P30_Core/core_cm3.c ****   __ASM("strexh r0, r0, [r1]");
 411:../CMSIS/CM3_V1P30_Core/core_cm3.c ****   __ASM("bx lr");
 412:../CMSIS/CM3_V1P30_Core/core_cm3.c **** }
 413:../CMSIS/CM3_V1P30_Core/core_cm3.c **** 
 414:../CMSIS/CM3_V1P30_Core/core_cm3.c **** /**
 415:../CMSIS/CM3_V1P30_Core/core_cm3.c ****  * @brief  STR Exclusive (32 bit)
 416:../CMSIS/CM3_V1P30_Core/core_cm3.c ****  *
 417:../CMSIS/CM3_V1P30_Core/core_cm3.c ****  * @param  value  value to store
 418:../CMSIS/CM3_V1P30_Core/core_cm3.c ****  * @param  *addr  address pointer
 419:../CMSIS/CM3_V1P30_Core/core_cm3.c ****  * @return        successful / failed
 420:../CMSIS/CM3_V1P30_Core/core_cm3.c ****  *
 421:../CMSIS/CM3_V1P30_Core/core_cm3.c ****  * Exclusive STR command for 32 bit values
 422:../CMSIS/CM3_V1P30_Core/core_cm3.c ****  */
ARM GAS  c:\Temp\cctGqfAZ.s 			page 9


 423:../CMSIS/CM3_V1P30_Core/core_cm3.c **** uint32_t __STREXW(uint32_t value, uint32_t *addr)
 424:../CMSIS/CM3_V1P30_Core/core_cm3.c **** {
 425:../CMSIS/CM3_V1P30_Core/core_cm3.c ****   __ASM("strex r0, r0, [r1]");
 426:../CMSIS/CM3_V1P30_Core/core_cm3.c ****   __ASM("bx lr");
 427:../CMSIS/CM3_V1P30_Core/core_cm3.c **** }
 428:../CMSIS/CM3_V1P30_Core/core_cm3.c **** 
 429:../CMSIS/CM3_V1P30_Core/core_cm3.c **** #pragma diag_default=Pe940
 430:../CMSIS/CM3_V1P30_Core/core_cm3.c **** 
 431:../CMSIS/CM3_V1P30_Core/core_cm3.c **** 
 432:../CMSIS/CM3_V1P30_Core/core_cm3.c **** #elif (defined (__GNUC__)) /*------------------ GNU Compiler ---------------------*/
 433:../CMSIS/CM3_V1P30_Core/core_cm3.c **** /* GNU gcc specific functions */
 434:../CMSIS/CM3_V1P30_Core/core_cm3.c **** 
 435:../CMSIS/CM3_V1P30_Core/core_cm3.c **** /**
 436:../CMSIS/CM3_V1P30_Core/core_cm3.c ****  * @brief  Return the Process Stack Pointer
 437:../CMSIS/CM3_V1P30_Core/core_cm3.c ****  *
 438:../CMSIS/CM3_V1P30_Core/core_cm3.c ****  * @return ProcessStackPointer
 439:../CMSIS/CM3_V1P30_Core/core_cm3.c ****  *
 440:../CMSIS/CM3_V1P30_Core/core_cm3.c ****  * Return the actual process stack pointer
 441:../CMSIS/CM3_V1P30_Core/core_cm3.c ****  */
 442:../CMSIS/CM3_V1P30_Core/core_cm3.c **** uint32_t __get_PSP(void) __attribute__( ( naked ) );
 443:../CMSIS/CM3_V1P30_Core/core_cm3.c **** uint32_t __get_PSP(void)
 444:../CMSIS/CM3_V1P30_Core/core_cm3.c **** {
  31              		.loc 1 444 0
  32              		.cfi_startproc
  33              		@ Naked Function: prologue and epilogue provided by programmer.
  34              		@ args = 0, pretend = 0, frame = 0
  35              		@ frame_needed = 1, uses_anonymous_args = 0
 445:../CMSIS/CM3_V1P30_Core/core_cm3.c ****   uint32_t result=0;
  36              		.loc 1 445 0
  37 0000 4FF00004 		mov	r4, #0
 446:../CMSIS/CM3_V1P30_Core/core_cm3.c **** 
 447:../CMSIS/CM3_V1P30_Core/core_cm3.c ****   __ASM volatile ("MRS %0, psp\n\t" 
  38              		.loc 1 447 0
  39              	@ 447 "../CMSIS/CM3_V1P30_Core/core_cm3.c" 1
  40 0004 EFF30984 		MRS r4, psp
  41 0008 2046     		MOV r0, r4 
  42 000a 7047     		BX  lr     
  43              		
  44              	@ 0 "" 2
 448:../CMSIS/CM3_V1P30_Core/core_cm3.c ****                   "MOV r0, %0 \n\t"
 449:../CMSIS/CM3_V1P30_Core/core_cm3.c ****                   "BX  lr     \n\t"  : "=r" (result) );
 450:../CMSIS/CM3_V1P30_Core/core_cm3.c ****   return(result);
  45              		.loc 1 450 0
  46              		.thumb
  47 000c 2346     		mov	r3, r4
 451:../CMSIS/CM3_V1P30_Core/core_cm3.c **** }
  48              		.loc 1 451 0
  49 000e 1846     		mov	r0, r3
  50              		.cfi_endproc
  51              	.LFE0:
  52              		.size	__get_PSP, .-__get_PSP
  53              		.align	2
  54              		.global	__set_PSP
  55              		.thumb
  56              		.thumb_func
  57              		.type	__set_PSP, %function
  58              	__set_PSP:
ARM GAS  c:\Temp\cctGqfAZ.s 			page 10


  59              	.LFB1:
 452:../CMSIS/CM3_V1P30_Core/core_cm3.c **** 
 453:../CMSIS/CM3_V1P30_Core/core_cm3.c **** /**
 454:../CMSIS/CM3_V1P30_Core/core_cm3.c ****  * @brief  Set the Process Stack Pointer
 455:../CMSIS/CM3_V1P30_Core/core_cm3.c ****  *
 456:../CMSIS/CM3_V1P30_Core/core_cm3.c ****  * @param  topOfProcStack  Process Stack Pointer
 457:../CMSIS/CM3_V1P30_Core/core_cm3.c ****  *
 458:../CMSIS/CM3_V1P30_Core/core_cm3.c ****  * Assign the value ProcessStackPointer to the MSP 
 459:../CMSIS/CM3_V1P30_Core/core_cm3.c ****  * (process stack pointer) Cortex processor register
 460:../CMSIS/CM3_V1P30_Core/core_cm3.c ****  */
 461:../CMSIS/CM3_V1P30_Core/core_cm3.c **** void __set_PSP(uint32_t topOfProcStack) __attribute__( ( naked ) );
 462:../CMSIS/CM3_V1P30_Core/core_cm3.c **** void __set_PSP(uint32_t topOfProcStack)
 463:../CMSIS/CM3_V1P30_Core/core_cm3.c **** {
  60              		.loc 1 463 0
  61              		.cfi_startproc
  62              		@ Naked Function: prologue and epilogue provided by programmer.
  63              		@ args = 0, pretend = 0, frame = 0
  64              		@ frame_needed = 1, uses_anonymous_args = 0
  65 0010 0346     		mov	r3, r0
 464:../CMSIS/CM3_V1P30_Core/core_cm3.c ****   __ASM volatile ("MSR psp, %0\n\t"
  66              		.loc 1 464 0
  67              	@ 464 "../CMSIS/CM3_V1P30_Core/core_cm3.c" 1
  68 0012 83F30988 		MSR psp, r3
  69 0016 7047     		BX  lr     
  70              		
  71              	@ 0 "" 2
 465:../CMSIS/CM3_V1P30_Core/core_cm3.c ****                   "BX  lr     \n\t" : : "r" (topOfProcStack) );
 466:../CMSIS/CM3_V1P30_Core/core_cm3.c **** }
  72              		.loc 1 466 0
  73              		.thumb
  74              		.cfi_endproc
  75              	.LFE1:
  76              		.size	__set_PSP, .-__set_PSP
  77              		.align	2
  78              		.global	__get_MSP
  79              		.thumb
  80              		.thumb_func
  81              		.type	__get_MSP, %function
  82              	__get_MSP:
  83              	.LFB2:
 467:../CMSIS/CM3_V1P30_Core/core_cm3.c **** 
 468:../CMSIS/CM3_V1P30_Core/core_cm3.c **** /**
 469:../CMSIS/CM3_V1P30_Core/core_cm3.c ****  * @brief  Return the Main Stack Pointer
 470:../CMSIS/CM3_V1P30_Core/core_cm3.c ****  *
 471:../CMSIS/CM3_V1P30_Core/core_cm3.c ****  * @return Main Stack Pointer
 472:../CMSIS/CM3_V1P30_Core/core_cm3.c ****  *
 473:../CMSIS/CM3_V1P30_Core/core_cm3.c ****  * Return the current value of the MSP (main stack pointer)
 474:../CMSIS/CM3_V1P30_Core/core_cm3.c ****  * Cortex processor register
 475:../CMSIS/CM3_V1P30_Core/core_cm3.c ****  */
 476:../CMSIS/CM3_V1P30_Core/core_cm3.c **** uint32_t __get_MSP(void) __attribute__( ( naked ) );
 477:../CMSIS/CM3_V1P30_Core/core_cm3.c **** uint32_t __get_MSP(void)
 478:../CMSIS/CM3_V1P30_Core/core_cm3.c **** {
  84              		.loc 1 478 0
  85              		.cfi_startproc
  86              		@ Naked Function: prologue and epilogue provided by programmer.
  87              		@ args = 0, pretend = 0, frame = 0
  88              		@ frame_needed = 1, uses_anonymous_args = 0
ARM GAS  c:\Temp\cctGqfAZ.s 			page 11


 479:../CMSIS/CM3_V1P30_Core/core_cm3.c ****   uint32_t result=0;
  89              		.loc 1 479 0
  90 0018 4FF00004 		mov	r4, #0
 480:../CMSIS/CM3_V1P30_Core/core_cm3.c **** 
 481:../CMSIS/CM3_V1P30_Core/core_cm3.c ****   __ASM volatile ("MRS %0, msp\n\t" 
  91              		.loc 1 481 0
  92              	@ 481 "../CMSIS/CM3_V1P30_Core/core_cm3.c" 1
  93 001c EFF30884 		MRS r4, msp
  94 0020 2046     		MOV r0, r4 
  95 0022 7047     		BX  lr     
  96              		
  97              	@ 0 "" 2
 482:../CMSIS/CM3_V1P30_Core/core_cm3.c ****                   "MOV r0, %0 \n\t"
 483:../CMSIS/CM3_V1P30_Core/core_cm3.c ****                   "BX  lr     \n\t"  : "=r" (result) );
 484:../CMSIS/CM3_V1P30_Core/core_cm3.c ****   return(result);
  98              		.loc 1 484 0
  99              		.thumb
 100 0024 2346     		mov	r3, r4
 485:../CMSIS/CM3_V1P30_Core/core_cm3.c **** }
 101              		.loc 1 485 0
 102 0026 1846     		mov	r0, r3
 103              		.cfi_endproc
 104              	.LFE2:
 105              		.size	__get_MSP, .-__get_MSP
 106              		.align	2
 107              		.global	__set_MSP
 108              		.thumb
 109              		.thumb_func
 110              		.type	__set_MSP, %function
 111              	__set_MSP:
 112              	.LFB3:
 486:../CMSIS/CM3_V1P30_Core/core_cm3.c **** 
 487:../CMSIS/CM3_V1P30_Core/core_cm3.c **** /**
 488:../CMSIS/CM3_V1P30_Core/core_cm3.c ****  * @brief  Set the Main Stack Pointer
 489:../CMSIS/CM3_V1P30_Core/core_cm3.c ****  *
 490:../CMSIS/CM3_V1P30_Core/core_cm3.c ****  * @param  topOfMainStack  Main Stack Pointer
 491:../CMSIS/CM3_V1P30_Core/core_cm3.c ****  *
 492:../CMSIS/CM3_V1P30_Core/core_cm3.c ****  * Assign the value mainStackPointer to the MSP 
 493:../CMSIS/CM3_V1P30_Core/core_cm3.c ****  * (main stack pointer) Cortex processor register
 494:../CMSIS/CM3_V1P30_Core/core_cm3.c ****  */
 495:../CMSIS/CM3_V1P30_Core/core_cm3.c **** void __set_MSP(uint32_t topOfMainStack) __attribute__( ( naked ) );
 496:../CMSIS/CM3_V1P30_Core/core_cm3.c **** void __set_MSP(uint32_t topOfMainStack)
 497:../CMSIS/CM3_V1P30_Core/core_cm3.c **** {
 113              		.loc 1 497 0
 114              		.cfi_startproc
 115              		@ Naked Function: prologue and epilogue provided by programmer.
 116              		@ args = 0, pretend = 0, frame = 0
 117              		@ frame_needed = 1, uses_anonymous_args = 0
 118 0028 0346     		mov	r3, r0
 498:../CMSIS/CM3_V1P30_Core/core_cm3.c ****   __ASM volatile ("MSR msp, %0\n\t"
 119              		.loc 1 498 0
 120              	@ 498 "../CMSIS/CM3_V1P30_Core/core_cm3.c" 1
 121 002a 83F30888 		MSR msp, r3
 122 002e 7047     		BX  lr     
 123              		
 124              	@ 0 "" 2
 499:../CMSIS/CM3_V1P30_Core/core_cm3.c ****                   "BX  lr     \n\t" : : "r" (topOfMainStack) );
ARM GAS  c:\Temp\cctGqfAZ.s 			page 12


 500:../CMSIS/CM3_V1P30_Core/core_cm3.c **** }
 125              		.loc 1 500 0
 126              		.thumb
 127              		.cfi_endproc
 128              	.LFE3:
 129              		.size	__set_MSP, .-__set_MSP
 130              		.align	2
 131              		.global	__get_BASEPRI
 132              		.thumb
 133              		.thumb_func
 134              		.type	__get_BASEPRI, %function
 135              	__get_BASEPRI:
 136              	.LFB4:
 501:../CMSIS/CM3_V1P30_Core/core_cm3.c **** 
 502:../CMSIS/CM3_V1P30_Core/core_cm3.c **** /**
 503:../CMSIS/CM3_V1P30_Core/core_cm3.c ****  * @brief  Return the Base Priority value
 504:../CMSIS/CM3_V1P30_Core/core_cm3.c ****  *
 505:../CMSIS/CM3_V1P30_Core/core_cm3.c ****  * @return BasePriority
 506:../CMSIS/CM3_V1P30_Core/core_cm3.c ****  *
 507:../CMSIS/CM3_V1P30_Core/core_cm3.c ****  * Return the content of the base priority register
 508:../CMSIS/CM3_V1P30_Core/core_cm3.c ****  */
 509:../CMSIS/CM3_V1P30_Core/core_cm3.c **** uint32_t __get_BASEPRI(void)
 510:../CMSIS/CM3_V1P30_Core/core_cm3.c **** {
 137              		.loc 1 510 0
 138              		.cfi_startproc
 139              		@ args = 0, pretend = 0, frame = 8
 140              		@ frame_needed = 1, uses_anonymous_args = 0
 141              		@ link register save eliminated.
 142 0030 90B4     		push	{r4, r7}
 143              	.LCFI0:
 144              		.cfi_def_cfa_offset 8
 145 0032 82B0     		sub	sp, sp, #8
 146              	.LCFI1:
 147              		.cfi_def_cfa_offset 16
 148 0034 00AF     		add	r7, sp, #0
 149              		.cfi_offset 7, -4
 150              		.cfi_offset 4, -8
 151              	.LCFI2:
 152              		.cfi_def_cfa_register 7
 511:../CMSIS/CM3_V1P30_Core/core_cm3.c ****   uint32_t result=0;
 153              		.loc 1 511 0
 154 0036 4FF00003 		mov	r3, #0
 155 003a 7B60     		str	r3, [r7, #4]
 512:../CMSIS/CM3_V1P30_Core/core_cm3.c ****   
 513:../CMSIS/CM3_V1P30_Core/core_cm3.c ****   __ASM volatile ("MRS %0, basepri_max" : "=r" (result) );
 156              		.loc 1 513 0
 157              	@ 513 "../CMSIS/CM3_V1P30_Core/core_cm3.c" 1
 158 003c EFF31284 		MRS r4, basepri_max
 159              	@ 0 "" 2
 160              		.thumb
 161 0040 7C60     		str	r4, [r7, #4]
 514:../CMSIS/CM3_V1P30_Core/core_cm3.c ****   return(result);
 162              		.loc 1 514 0
 163 0042 7B68     		ldr	r3, [r7, #4]
 515:../CMSIS/CM3_V1P30_Core/core_cm3.c **** }
 164              		.loc 1 515 0
 165 0044 1846     		mov	r0, r3
ARM GAS  c:\Temp\cctGqfAZ.s 			page 13


 166 0046 07F10807 		add	r7, r7, #8
 167 004a BD46     		mov	sp, r7
 168 004c 90BC     		pop	{r4, r7}
 169 004e 7047     		bx	lr
 170              		.cfi_endproc
 171              	.LFE4:
 172              		.size	__get_BASEPRI, .-__get_BASEPRI
 173              		.align	2
 174              		.global	__set_BASEPRI
 175              		.thumb
 176              		.thumb_func
 177              		.type	__set_BASEPRI, %function
 178              	__set_BASEPRI:
 179              	.LFB5:
 516:../CMSIS/CM3_V1P30_Core/core_cm3.c **** 
 517:../CMSIS/CM3_V1P30_Core/core_cm3.c **** /**
 518:../CMSIS/CM3_V1P30_Core/core_cm3.c ****  * @brief  Set the Base Priority value
 519:../CMSIS/CM3_V1P30_Core/core_cm3.c ****  *
 520:../CMSIS/CM3_V1P30_Core/core_cm3.c ****  * @param  basePri  BasePriority
 521:../CMSIS/CM3_V1P30_Core/core_cm3.c ****  *
 522:../CMSIS/CM3_V1P30_Core/core_cm3.c ****  * Set the base priority register
 523:../CMSIS/CM3_V1P30_Core/core_cm3.c ****  */
 524:../CMSIS/CM3_V1P30_Core/core_cm3.c **** void __set_BASEPRI(uint32_t value)
 525:../CMSIS/CM3_V1P30_Core/core_cm3.c **** {
 180              		.loc 1 525 0
 181              		.cfi_startproc
 182              		@ args = 0, pretend = 0, frame = 8
 183              		@ frame_needed = 1, uses_anonymous_args = 0
 184              		@ link register save eliminated.
 185 0050 80B4     		push	{r7}
 186              	.LCFI3:
 187              		.cfi_def_cfa_offset 4
 188 0052 83B0     		sub	sp, sp, #12
 189              	.LCFI4:
 190              		.cfi_def_cfa_offset 16
 191 0054 00AF     		add	r7, sp, #0
 192              		.cfi_offset 7, -4
 193              	.LCFI5:
 194              		.cfi_def_cfa_register 7
 195 0056 7860     		str	r0, [r7, #4]
 526:../CMSIS/CM3_V1P30_Core/core_cm3.c ****   __ASM volatile ("MSR basepri, %0" : : "r" (value) );
 196              		.loc 1 526 0
 197 0058 7B68     		ldr	r3, [r7, #4]
 198              	@ 526 "../CMSIS/CM3_V1P30_Core/core_cm3.c" 1
 199 005a 83F31188 		MSR basepri, r3
 200              	@ 0 "" 2
 527:../CMSIS/CM3_V1P30_Core/core_cm3.c **** }
 201              		.loc 1 527 0
 202              		.thumb
 203 005e 07F10C07 		add	r7, r7, #12
 204 0062 BD46     		mov	sp, r7
 205 0064 80BC     		pop	{r7}
 206 0066 7047     		bx	lr
 207              		.cfi_endproc
 208              	.LFE5:
 209              		.size	__set_BASEPRI, .-__set_BASEPRI
 210              		.align	2
ARM GAS  c:\Temp\cctGqfAZ.s 			page 14


 211              		.global	__get_PRIMASK
 212              		.thumb
 213              		.thumb_func
 214              		.type	__get_PRIMASK, %function
 215              	__get_PRIMASK:
 216              	.LFB6:
 528:../CMSIS/CM3_V1P30_Core/core_cm3.c **** 
 529:../CMSIS/CM3_V1P30_Core/core_cm3.c **** /**
 530:../CMSIS/CM3_V1P30_Core/core_cm3.c ****  * @brief  Return the Priority Mask value
 531:../CMSIS/CM3_V1P30_Core/core_cm3.c ****  *
 532:../CMSIS/CM3_V1P30_Core/core_cm3.c ****  * @return PriMask
 533:../CMSIS/CM3_V1P30_Core/core_cm3.c ****  *
 534:../CMSIS/CM3_V1P30_Core/core_cm3.c ****  * Return state of the priority mask bit from the priority mask register
 535:../CMSIS/CM3_V1P30_Core/core_cm3.c ****  */
 536:../CMSIS/CM3_V1P30_Core/core_cm3.c **** uint32_t __get_PRIMASK(void)
 537:../CMSIS/CM3_V1P30_Core/core_cm3.c **** {
 217              		.loc 1 537 0
 218              		.cfi_startproc
 219              		@ args = 0, pretend = 0, frame = 8
 220              		@ frame_needed = 1, uses_anonymous_args = 0
 221              		@ link register save eliminated.
 222 0068 90B4     		push	{r4, r7}
 223              	.LCFI6:
 224              		.cfi_def_cfa_offset 8
 225 006a 82B0     		sub	sp, sp, #8
 226              	.LCFI7:
 227              		.cfi_def_cfa_offset 16
 228 006c 00AF     		add	r7, sp, #0
 229              		.cfi_offset 7, -4
 230              		.cfi_offset 4, -8
 231              	.LCFI8:
 232              		.cfi_def_cfa_register 7
 538:../CMSIS/CM3_V1P30_Core/core_cm3.c ****   uint32_t result=0;
 233              		.loc 1 538 0
 234 006e 4FF00003 		mov	r3, #0
 235 0072 7B60     		str	r3, [r7, #4]
 539:../CMSIS/CM3_V1P30_Core/core_cm3.c **** 
 540:../CMSIS/CM3_V1P30_Core/core_cm3.c ****   __ASM volatile ("MRS %0, primask" : "=r" (result) );
 236              		.loc 1 540 0
 237              	@ 540 "../CMSIS/CM3_V1P30_Core/core_cm3.c" 1
 238 0074 EFF31084 		MRS r4, primask
 239              	@ 0 "" 2
 240              		.thumb
 241 0078 7C60     		str	r4, [r7, #4]
 541:../CMSIS/CM3_V1P30_Core/core_cm3.c ****   return(result);
 242              		.loc 1 541 0
 243 007a 7B68     		ldr	r3, [r7, #4]
 542:../CMSIS/CM3_V1P30_Core/core_cm3.c **** }
 244              		.loc 1 542 0
 245 007c 1846     		mov	r0, r3
 246 007e 07F10807 		add	r7, r7, #8
 247 0082 BD46     		mov	sp, r7
 248 0084 90BC     		pop	{r4, r7}
 249 0086 7047     		bx	lr
 250              		.cfi_endproc
 251              	.LFE6:
 252              		.size	__get_PRIMASK, .-__get_PRIMASK
ARM GAS  c:\Temp\cctGqfAZ.s 			page 15


 253              		.align	2
 254              		.global	__set_PRIMASK
 255              		.thumb
 256              		.thumb_func
 257              		.type	__set_PRIMASK, %function
 258              	__set_PRIMASK:
 259              	.LFB7:
 543:../CMSIS/CM3_V1P30_Core/core_cm3.c **** 
 544:../CMSIS/CM3_V1P30_Core/core_cm3.c **** /**
 545:../CMSIS/CM3_V1P30_Core/core_cm3.c ****  * @brief  Set the Priority Mask value
 546:../CMSIS/CM3_V1P30_Core/core_cm3.c ****  *
 547:../CMSIS/CM3_V1P30_Core/core_cm3.c ****  * @param  priMask  PriMask
 548:../CMSIS/CM3_V1P30_Core/core_cm3.c ****  *
 549:../CMSIS/CM3_V1P30_Core/core_cm3.c ****  * Set the priority mask bit in the priority mask register
 550:../CMSIS/CM3_V1P30_Core/core_cm3.c ****  */
 551:../CMSIS/CM3_V1P30_Core/core_cm3.c **** void __set_PRIMASK(uint32_t priMask)
 552:../CMSIS/CM3_V1P30_Core/core_cm3.c **** {
 260              		.loc 1 552 0
 261              		.cfi_startproc
 262              		@ args = 0, pretend = 0, frame = 8
 263              		@ frame_needed = 1, uses_anonymous_args = 0
 264              		@ link register save eliminated.
 265 0088 80B4     		push	{r7}
 266              	.LCFI9:
 267              		.cfi_def_cfa_offset 4
 268 008a 83B0     		sub	sp, sp, #12
 269              	.LCFI10:
 270              		.cfi_def_cfa_offset 16
 271 008c 00AF     		add	r7, sp, #0
 272              		.cfi_offset 7, -4
 273              	.LCFI11:
 274              		.cfi_def_cfa_register 7
 275 008e 7860     		str	r0, [r7, #4]
 553:../CMSIS/CM3_V1P30_Core/core_cm3.c ****   __ASM volatile ("MSR primask, %0" : : "r" (priMask) );
 276              		.loc 1 553 0
 277 0090 7B68     		ldr	r3, [r7, #4]
 278              	@ 553 "../CMSIS/CM3_V1P30_Core/core_cm3.c" 1
 279 0092 83F31088 		MSR primask, r3
 280              	@ 0 "" 2
 554:../CMSIS/CM3_V1P30_Core/core_cm3.c **** }
 281              		.loc 1 554 0
 282              		.thumb
 283 0096 07F10C07 		add	r7, r7, #12
 284 009a BD46     		mov	sp, r7
 285 009c 80BC     		pop	{r7}
 286 009e 7047     		bx	lr
 287              		.cfi_endproc
 288              	.LFE7:
 289              		.size	__set_PRIMASK, .-__set_PRIMASK
 290              		.align	2
 291              		.global	__get_FAULTMASK
 292              		.thumb
 293              		.thumb_func
 294              		.type	__get_FAULTMASK, %function
 295              	__get_FAULTMASK:
 296              	.LFB8:
 555:../CMSIS/CM3_V1P30_Core/core_cm3.c **** 
ARM GAS  c:\Temp\cctGqfAZ.s 			page 16


 556:../CMSIS/CM3_V1P30_Core/core_cm3.c **** /**
 557:../CMSIS/CM3_V1P30_Core/core_cm3.c ****  * @brief  Return the Fault Mask value
 558:../CMSIS/CM3_V1P30_Core/core_cm3.c ****  *
 559:../CMSIS/CM3_V1P30_Core/core_cm3.c ****  * @return FaultMask
 560:../CMSIS/CM3_V1P30_Core/core_cm3.c ****  *
 561:../CMSIS/CM3_V1P30_Core/core_cm3.c ****  * Return the content of the fault mask register
 562:../CMSIS/CM3_V1P30_Core/core_cm3.c ****  */
 563:../CMSIS/CM3_V1P30_Core/core_cm3.c **** uint32_t __get_FAULTMASK(void)
 564:../CMSIS/CM3_V1P30_Core/core_cm3.c **** {
 297              		.loc 1 564 0
 298              		.cfi_startproc
 299              		@ args = 0, pretend = 0, frame = 8
 300              		@ frame_needed = 1, uses_anonymous_args = 0
 301              		@ link register save eliminated.
 302 00a0 90B4     		push	{r4, r7}
 303              	.LCFI12:
 304              		.cfi_def_cfa_offset 8
 305 00a2 82B0     		sub	sp, sp, #8
 306              	.LCFI13:
 307              		.cfi_def_cfa_offset 16
 308 00a4 00AF     		add	r7, sp, #0
 309              		.cfi_offset 7, -4
 310              		.cfi_offset 4, -8
 311              	.LCFI14:
 312              		.cfi_def_cfa_register 7
 565:../CMSIS/CM3_V1P30_Core/core_cm3.c ****   uint32_t result=0;
 313              		.loc 1 565 0
 314 00a6 4FF00003 		mov	r3, #0
 315 00aa 7B60     		str	r3, [r7, #4]
 566:../CMSIS/CM3_V1P30_Core/core_cm3.c ****   
 567:../CMSIS/CM3_V1P30_Core/core_cm3.c ****   __ASM volatile ("MRS %0, faultmask" : "=r" (result) );
 316              		.loc 1 567 0
 317              	@ 567 "../CMSIS/CM3_V1P30_Core/core_cm3.c" 1
 318 00ac EFF31384 		MRS r4, faultmask
 319              	@ 0 "" 2
 320              		.thumb
 321 00b0 7C60     		str	r4, [r7, #4]
 568:../CMSIS/CM3_V1P30_Core/core_cm3.c ****   return(result);
 322              		.loc 1 568 0
 323 00b2 7B68     		ldr	r3, [r7, #4]
 569:../CMSIS/CM3_V1P30_Core/core_cm3.c **** }
 324              		.loc 1 569 0
 325 00b4 1846     		mov	r0, r3
 326 00b6 07F10807 		add	r7, r7, #8
 327 00ba BD46     		mov	sp, r7
 328 00bc 90BC     		pop	{r4, r7}
 329 00be 7047     		bx	lr
 330              		.cfi_endproc
 331              	.LFE8:
 332              		.size	__get_FAULTMASK, .-__get_FAULTMASK
 333              		.align	2
 334              		.global	__set_FAULTMASK
 335              		.thumb
 336              		.thumb_func
 337              		.type	__set_FAULTMASK, %function
 338              	__set_FAULTMASK:
 339              	.LFB9:
ARM GAS  c:\Temp\cctGqfAZ.s 			page 17


 570:../CMSIS/CM3_V1P30_Core/core_cm3.c **** 
 571:../CMSIS/CM3_V1P30_Core/core_cm3.c **** /**
 572:../CMSIS/CM3_V1P30_Core/core_cm3.c ****  * @brief  Set the Fault Mask value
 573:../CMSIS/CM3_V1P30_Core/core_cm3.c ****  *
 574:../CMSIS/CM3_V1P30_Core/core_cm3.c ****  * @param  faultMask  faultMask value
 575:../CMSIS/CM3_V1P30_Core/core_cm3.c ****  *
 576:../CMSIS/CM3_V1P30_Core/core_cm3.c ****  * Set the fault mask register
 577:../CMSIS/CM3_V1P30_Core/core_cm3.c ****  */
 578:../CMSIS/CM3_V1P30_Core/core_cm3.c **** void __set_FAULTMASK(uint32_t faultMask)
 579:../CMSIS/CM3_V1P30_Core/core_cm3.c **** {
 340              		.loc 1 579 0
 341              		.cfi_startproc
 342              		@ args = 0, pretend = 0, frame = 8
 343              		@ frame_needed = 1, uses_anonymous_args = 0
 344              		@ link register save eliminated.
 345 00c0 80B4     		push	{r7}
 346              	.LCFI15:
 347              		.cfi_def_cfa_offset 4
 348 00c2 83B0     		sub	sp, sp, #12
 349              	.LCFI16:
 350              		.cfi_def_cfa_offset 16
 351 00c4 00AF     		add	r7, sp, #0
 352              		.cfi_offset 7, -4
 353              	.LCFI17:
 354              		.cfi_def_cfa_register 7
 355 00c6 7860     		str	r0, [r7, #4]
 580:../CMSIS/CM3_V1P30_Core/core_cm3.c ****   __ASM volatile ("MSR faultmask, %0" : : "r" (faultMask) );
 356              		.loc 1 580 0
 357 00c8 7B68     		ldr	r3, [r7, #4]
 358              	@ 580 "../CMSIS/CM3_V1P30_Core/core_cm3.c" 1
 359 00ca 83F31388 		MSR faultmask, r3
 360              	@ 0 "" 2
 581:../CMSIS/CM3_V1P30_Core/core_cm3.c **** }
 361              		.loc 1 581 0
 362              		.thumb
 363 00ce 07F10C07 		add	r7, r7, #12
 364 00d2 BD46     		mov	sp, r7
 365 00d4 80BC     		pop	{r7}
 366 00d6 7047     		bx	lr
 367              		.cfi_endproc
 368              	.LFE9:
 369              		.size	__set_FAULTMASK, .-__set_FAULTMASK
 370              		.align	2
 371              		.global	__get_CONTROL
 372              		.thumb
 373              		.thumb_func
 374              		.type	__get_CONTROL, %function
 375              	__get_CONTROL:
 376              	.LFB10:
 582:../CMSIS/CM3_V1P30_Core/core_cm3.c **** 
 583:../CMSIS/CM3_V1P30_Core/core_cm3.c **** /**
 584:../CMSIS/CM3_V1P30_Core/core_cm3.c ****  * @brief  Return the Control Register value
 585:../CMSIS/CM3_V1P30_Core/core_cm3.c **** * 
 586:../CMSIS/CM3_V1P30_Core/core_cm3.c **** *  @return Control value
 587:../CMSIS/CM3_V1P30_Core/core_cm3.c ****  *
 588:../CMSIS/CM3_V1P30_Core/core_cm3.c ****  * Return the content of the control register
 589:../CMSIS/CM3_V1P30_Core/core_cm3.c ****  */
ARM GAS  c:\Temp\cctGqfAZ.s 			page 18


 590:../CMSIS/CM3_V1P30_Core/core_cm3.c **** uint32_t __get_CONTROL(void)
 591:../CMSIS/CM3_V1P30_Core/core_cm3.c **** {
 377              		.loc 1 591 0
 378              		.cfi_startproc
 379              		@ args = 0, pretend = 0, frame = 8
 380              		@ frame_needed = 1, uses_anonymous_args = 0
 381              		@ link register save eliminated.
 382 00d8 90B4     		push	{r4, r7}
 383              	.LCFI18:
 384              		.cfi_def_cfa_offset 8
 385 00da 82B0     		sub	sp, sp, #8
 386              	.LCFI19:
 387              		.cfi_def_cfa_offset 16
 388 00dc 00AF     		add	r7, sp, #0
 389              		.cfi_offset 7, -4
 390              		.cfi_offset 4, -8
 391              	.LCFI20:
 392              		.cfi_def_cfa_register 7
 592:../CMSIS/CM3_V1P30_Core/core_cm3.c ****   uint32_t result=0;
 393              		.loc 1 592 0
 394 00de 4FF00003 		mov	r3, #0
 395 00e2 7B60     		str	r3, [r7, #4]
 593:../CMSIS/CM3_V1P30_Core/core_cm3.c **** 
 594:../CMSIS/CM3_V1P30_Core/core_cm3.c ****   __ASM volatile ("MRS %0, control" : "=r" (result) );
 396              		.loc 1 594 0
 397              	@ 594 "../CMSIS/CM3_V1P30_Core/core_cm3.c" 1
 398 00e4 EFF31484 		MRS r4, control
 399              	@ 0 "" 2
 400              		.thumb
 401 00e8 7C60     		str	r4, [r7, #4]
 595:../CMSIS/CM3_V1P30_Core/core_cm3.c ****   return(result);
 402              		.loc 1 595 0
 403 00ea 7B68     		ldr	r3, [r7, #4]
 596:../CMSIS/CM3_V1P30_Core/core_cm3.c **** }
 404              		.loc 1 596 0
 405 00ec 1846     		mov	r0, r3
 406 00ee 07F10807 		add	r7, r7, #8
 407 00f2 BD46     		mov	sp, r7
 408 00f4 90BC     		pop	{r4, r7}
 409 00f6 7047     		bx	lr
 410              		.cfi_endproc
 411              	.LFE10:
 412              		.size	__get_CONTROL, .-__get_CONTROL
 413              		.align	2
 414              		.global	__set_CONTROL
 415              		.thumb
 416              		.thumb_func
 417              		.type	__set_CONTROL, %function
 418              	__set_CONTROL:
 419              	.LFB11:
 597:../CMSIS/CM3_V1P30_Core/core_cm3.c **** 
 598:../CMSIS/CM3_V1P30_Core/core_cm3.c **** /**
 599:../CMSIS/CM3_V1P30_Core/core_cm3.c ****  * @brief  Set the Control Register value
 600:../CMSIS/CM3_V1P30_Core/core_cm3.c ****  *
 601:../CMSIS/CM3_V1P30_Core/core_cm3.c ****  * @param  control  Control value
 602:../CMSIS/CM3_V1P30_Core/core_cm3.c ****  *
 603:../CMSIS/CM3_V1P30_Core/core_cm3.c ****  * Set the control register
ARM GAS  c:\Temp\cctGqfAZ.s 			page 19


 604:../CMSIS/CM3_V1P30_Core/core_cm3.c ****  */
 605:../CMSIS/CM3_V1P30_Core/core_cm3.c **** void __set_CONTROL(uint32_t control)
 606:../CMSIS/CM3_V1P30_Core/core_cm3.c **** {
 420              		.loc 1 606 0
 421              		.cfi_startproc
 422              		@ args = 0, pretend = 0, frame = 8
 423              		@ frame_needed = 1, uses_anonymous_args = 0
 424              		@ link register save eliminated.
 425 00f8 80B4     		push	{r7}
 426              	.LCFI21:
 427              		.cfi_def_cfa_offset 4
 428 00fa 83B0     		sub	sp, sp, #12
 429              	.LCFI22:
 430              		.cfi_def_cfa_offset 16
 431 00fc 00AF     		add	r7, sp, #0
 432              		.cfi_offset 7, -4
 433              	.LCFI23:
 434              		.cfi_def_cfa_register 7
 435 00fe 7860     		str	r0, [r7, #4]
 607:../CMSIS/CM3_V1P30_Core/core_cm3.c ****   __ASM volatile ("MSR control, %0" : : "r" (control) );
 436              		.loc 1 607 0
 437 0100 7B68     		ldr	r3, [r7, #4]
 438              	@ 607 "../CMSIS/CM3_V1P30_Core/core_cm3.c" 1
 439 0102 83F31488 		MSR control, r3
 440              	@ 0 "" 2
 608:../CMSIS/CM3_V1P30_Core/core_cm3.c **** }
 441              		.loc 1 608 0
 442              		.thumb
 443 0106 07F10C07 		add	r7, r7, #12
 444 010a BD46     		mov	sp, r7
 445 010c 80BC     		pop	{r7}
 446 010e 7047     		bx	lr
 447              		.cfi_endproc
 448              	.LFE11:
 449              		.size	__set_CONTROL, .-__set_CONTROL
 450              		.align	2
 451              		.global	__REV
 452              		.thumb
 453              		.thumb_func
 454              		.type	__REV, %function
 455              	__REV:
 456              	.LFB12:
 609:../CMSIS/CM3_V1P30_Core/core_cm3.c **** 
 610:../CMSIS/CM3_V1P30_Core/core_cm3.c **** 
 611:../CMSIS/CM3_V1P30_Core/core_cm3.c **** /**
 612:../CMSIS/CM3_V1P30_Core/core_cm3.c ****  * @brief  Reverse byte order in integer value
 613:../CMSIS/CM3_V1P30_Core/core_cm3.c ****  *
 614:../CMSIS/CM3_V1P30_Core/core_cm3.c ****  * @param  value  value to reverse
 615:../CMSIS/CM3_V1P30_Core/core_cm3.c ****  * @return        reversed value
 616:../CMSIS/CM3_V1P30_Core/core_cm3.c ****  *
 617:../CMSIS/CM3_V1P30_Core/core_cm3.c ****  * Reverse byte order in integer value
 618:../CMSIS/CM3_V1P30_Core/core_cm3.c ****  */
 619:../CMSIS/CM3_V1P30_Core/core_cm3.c **** uint32_t __REV(uint32_t value)
 620:../CMSIS/CM3_V1P30_Core/core_cm3.c **** {
 457              		.loc 1 620 0
 458              		.cfi_startproc
 459              		@ args = 0, pretend = 0, frame = 16
ARM GAS  c:\Temp\cctGqfAZ.s 			page 20


 460              		@ frame_needed = 1, uses_anonymous_args = 0
 461              		@ link register save eliminated.
 462 0110 90B4     		push	{r4, r7}
 463              	.LCFI24:
 464              		.cfi_def_cfa_offset 8
 465 0112 84B0     		sub	sp, sp, #16
 466              	.LCFI25:
 467              		.cfi_def_cfa_offset 24
 468 0114 00AF     		add	r7, sp, #0
 469              		.cfi_offset 7, -4
 470              		.cfi_offset 4, -8
 471              	.LCFI26:
 472              		.cfi_def_cfa_register 7
 473 0116 7860     		str	r0, [r7, #4]
 621:../CMSIS/CM3_V1P30_Core/core_cm3.c ****   uint32_t result=0;
 474              		.loc 1 621 0
 475 0118 4FF00003 		mov	r3, #0
 476 011c FB60     		str	r3, [r7, #12]
 622:../CMSIS/CM3_V1P30_Core/core_cm3.c ****   
 623:../CMSIS/CM3_V1P30_Core/core_cm3.c ****   __ASM volatile ("rev %0, %1" : "=r" (result) : "r" (value) );
 477              		.loc 1 623 0
 478 011e 7B68     		ldr	r3, [r7, #4]
 479              	@ 623 "../CMSIS/CM3_V1P30_Core/core_cm3.c" 1
 480 0120 1CBA     		rev r4, r3
 481              	@ 0 "" 2
 482              		.thumb
 483 0122 FC60     		str	r4, [r7, #12]
 624:../CMSIS/CM3_V1P30_Core/core_cm3.c ****   return(result);
 484              		.loc 1 624 0
 485 0124 FB68     		ldr	r3, [r7, #12]
 625:../CMSIS/CM3_V1P30_Core/core_cm3.c **** }
 486              		.loc 1 625 0
 487 0126 1846     		mov	r0, r3
 488 0128 07F11007 		add	r7, r7, #16
 489 012c BD46     		mov	sp, r7
 490 012e 90BC     		pop	{r4, r7}
 491 0130 7047     		bx	lr
 492              		.cfi_endproc
 493              	.LFE12:
 494              		.size	__REV, .-__REV
 495 0132 00BF     		.align	2
 496              		.global	__REV16
 497              		.thumb
 498              		.thumb_func
 499              		.type	__REV16, %function
 500              	__REV16:
 501              	.LFB13:
 626:../CMSIS/CM3_V1P30_Core/core_cm3.c **** 
 627:../CMSIS/CM3_V1P30_Core/core_cm3.c **** /**
 628:../CMSIS/CM3_V1P30_Core/core_cm3.c ****  * @brief  Reverse byte order in unsigned short value
 629:../CMSIS/CM3_V1P30_Core/core_cm3.c ****  *
 630:../CMSIS/CM3_V1P30_Core/core_cm3.c ****  * @param  value  value to reverse
 631:../CMSIS/CM3_V1P30_Core/core_cm3.c ****  * @return        reversed value
 632:../CMSIS/CM3_V1P30_Core/core_cm3.c ****  *
 633:../CMSIS/CM3_V1P30_Core/core_cm3.c ****  * Reverse byte order in unsigned short value
 634:../CMSIS/CM3_V1P30_Core/core_cm3.c ****  */
 635:../CMSIS/CM3_V1P30_Core/core_cm3.c **** uint32_t __REV16(uint16_t value)
ARM GAS  c:\Temp\cctGqfAZ.s 			page 21


 636:../CMSIS/CM3_V1P30_Core/core_cm3.c **** {
 502              		.loc 1 636 0
 503              		.cfi_startproc
 504              		@ args = 0, pretend = 0, frame = 16
 505              		@ frame_needed = 1, uses_anonymous_args = 0
 506              		@ link register save eliminated.
 507 0134 90B4     		push	{r4, r7}
 508              	.LCFI27:
 509              		.cfi_def_cfa_offset 8
 510 0136 84B0     		sub	sp, sp, #16
 511              	.LCFI28:
 512              		.cfi_def_cfa_offset 24
 513 0138 00AF     		add	r7, sp, #0
 514              		.cfi_offset 7, -4
 515              		.cfi_offset 4, -8
 516              	.LCFI29:
 517              		.cfi_def_cfa_register 7
 518 013a 0346     		mov	r3, r0
 519 013c FB80     		strh	r3, [r7, #6]	@ movhi
 637:../CMSIS/CM3_V1P30_Core/core_cm3.c ****   uint32_t result=0;
 520              		.loc 1 637 0
 521 013e 4FF00003 		mov	r3, #0
 522 0142 FB60     		str	r3, [r7, #12]
 638:../CMSIS/CM3_V1P30_Core/core_cm3.c ****   
 639:../CMSIS/CM3_V1P30_Core/core_cm3.c ****   __ASM volatile ("rev16 %0, %1" : "=r" (result) : "r" (value) );
 523              		.loc 1 639 0
 524 0144 FB88     		ldrh	r3, [r7, #6]	@ movhi
 525              	@ 639 "../CMSIS/CM3_V1P30_Core/core_cm3.c" 1
 526 0146 5CBA     		rev16 r4, r3
 527              	@ 0 "" 2
 528              		.thumb
 529 0148 FC60     		str	r4, [r7, #12]
 640:../CMSIS/CM3_V1P30_Core/core_cm3.c ****   return(result);
 530              		.loc 1 640 0
 531 014a FB68     		ldr	r3, [r7, #12]
 641:../CMSIS/CM3_V1P30_Core/core_cm3.c **** }
 532              		.loc 1 641 0
 533 014c 1846     		mov	r0, r3
 534 014e 07F11007 		add	r7, r7, #16
 535 0152 BD46     		mov	sp, r7
 536 0154 90BC     		pop	{r4, r7}
 537 0156 7047     		bx	lr
 538              		.cfi_endproc
 539              	.LFE13:
 540              		.size	__REV16, .-__REV16
 541              		.align	2
 542              		.global	__REVSH
 543              		.thumb
 544              		.thumb_func
 545              		.type	__REVSH, %function
 546              	__REVSH:
 547              	.LFB14:
 642:../CMSIS/CM3_V1P30_Core/core_cm3.c **** 
 643:../CMSIS/CM3_V1P30_Core/core_cm3.c **** /**
 644:../CMSIS/CM3_V1P30_Core/core_cm3.c ****  * @brief  Reverse byte order in signed short value with sign extension to integer
 645:../CMSIS/CM3_V1P30_Core/core_cm3.c ****  *
 646:../CMSIS/CM3_V1P30_Core/core_cm3.c ****  * @param  value  value to reverse
ARM GAS  c:\Temp\cctGqfAZ.s 			page 22


 647:../CMSIS/CM3_V1P30_Core/core_cm3.c ****  * @return        reversed value
 648:../CMSIS/CM3_V1P30_Core/core_cm3.c ****  *
 649:../CMSIS/CM3_V1P30_Core/core_cm3.c ****  * Reverse byte order in signed short value with sign extension to integer
 650:../CMSIS/CM3_V1P30_Core/core_cm3.c ****  */
 651:../CMSIS/CM3_V1P30_Core/core_cm3.c **** int32_t __REVSH(int16_t value)
 652:../CMSIS/CM3_V1P30_Core/core_cm3.c **** {
 548              		.loc 1 652 0
 549              		.cfi_startproc
 550              		@ args = 0, pretend = 0, frame = 16
 551              		@ frame_needed = 1, uses_anonymous_args = 0
 552              		@ link register save eliminated.
 553 0158 90B4     		push	{r4, r7}
 554              	.LCFI30:
 555              		.cfi_def_cfa_offset 8
 556 015a 84B0     		sub	sp, sp, #16
 557              	.LCFI31:
 558              		.cfi_def_cfa_offset 24
 559 015c 00AF     		add	r7, sp, #0
 560              		.cfi_offset 7, -4
 561              		.cfi_offset 4, -8
 562              	.LCFI32:
 563              		.cfi_def_cfa_register 7
 564 015e 0346     		mov	r3, r0
 565 0160 FB80     		strh	r3, [r7, #6]	@ movhi
 653:../CMSIS/CM3_V1P30_Core/core_cm3.c ****   uint32_t result=0;
 566              		.loc 1 653 0
 567 0162 4FF00003 		mov	r3, #0
 568 0166 FB60     		str	r3, [r7, #12]
 654:../CMSIS/CM3_V1P30_Core/core_cm3.c ****   
 655:../CMSIS/CM3_V1P30_Core/core_cm3.c ****   __ASM volatile ("revsh %0, %1" : "=r" (result) : "r" (value) );
 569              		.loc 1 655 0
 570 0168 FB88     		ldrh	r3, [r7, #6]	@ movhi
 571              	@ 655 "../CMSIS/CM3_V1P30_Core/core_cm3.c" 1
 572 016a DCBA     		revsh r4, r3
 573              	@ 0 "" 2
 574              		.thumb
 575 016c FC60     		str	r4, [r7, #12]
 656:../CMSIS/CM3_V1P30_Core/core_cm3.c ****   return(result);
 576              		.loc 1 656 0
 577 016e FB68     		ldr	r3, [r7, #12]
 657:../CMSIS/CM3_V1P30_Core/core_cm3.c **** }
 578              		.loc 1 657 0
 579 0170 1846     		mov	r0, r3
 580 0172 07F11007 		add	r7, r7, #16
 581 0176 BD46     		mov	sp, r7
 582 0178 90BC     		pop	{r4, r7}
 583 017a 7047     		bx	lr
 584              		.cfi_endproc
 585              	.LFE14:
 586              		.size	__REVSH, .-__REVSH
 587              		.align	2
 588              		.global	__RBIT
 589              		.thumb
 590              		.thumb_func
 591              		.type	__RBIT, %function
 592              	__RBIT:
 593              	.LFB15:
ARM GAS  c:\Temp\cctGqfAZ.s 			page 23


 658:../CMSIS/CM3_V1P30_Core/core_cm3.c **** 
 659:../CMSIS/CM3_V1P30_Core/core_cm3.c **** /**
 660:../CMSIS/CM3_V1P30_Core/core_cm3.c ****  * @brief  Reverse bit order of value
 661:../CMSIS/CM3_V1P30_Core/core_cm3.c ****  *
 662:../CMSIS/CM3_V1P30_Core/core_cm3.c ****  * @param  value  value to reverse
 663:../CMSIS/CM3_V1P30_Core/core_cm3.c ****  * @return        reversed value
 664:../CMSIS/CM3_V1P30_Core/core_cm3.c ****  *
 665:../CMSIS/CM3_V1P30_Core/core_cm3.c ****  * Reverse bit order of value
 666:../CMSIS/CM3_V1P30_Core/core_cm3.c ****  */
 667:../CMSIS/CM3_V1P30_Core/core_cm3.c **** uint32_t __RBIT(uint32_t value)
 668:../CMSIS/CM3_V1P30_Core/core_cm3.c **** {
 594              		.loc 1 668 0
 595              		.cfi_startproc
 596              		@ args = 0, pretend = 0, frame = 16
 597              		@ frame_needed = 1, uses_anonymous_args = 0
 598              		@ link register save eliminated.
 599 017c 90B4     		push	{r4, r7}
 600              	.LCFI33:
 601              		.cfi_def_cfa_offset 8
 602 017e 84B0     		sub	sp, sp, #16
 603              	.LCFI34:
 604              		.cfi_def_cfa_offset 24
 605 0180 00AF     		add	r7, sp, #0
 606              		.cfi_offset 7, -4
 607              		.cfi_offset 4, -8
 608              	.LCFI35:
 609              		.cfi_def_cfa_register 7
 610 0182 7860     		str	r0, [r7, #4]
 669:../CMSIS/CM3_V1P30_Core/core_cm3.c ****   uint32_t result=0;
 611              		.loc 1 669 0
 612 0184 4FF00003 		mov	r3, #0
 613 0188 FB60     		str	r3, [r7, #12]
 670:../CMSIS/CM3_V1P30_Core/core_cm3.c ****   
 671:../CMSIS/CM3_V1P30_Core/core_cm3.c ****    __ASM volatile ("rbit %0, %1" : "=r" (result) : "r" (value) );
 614              		.loc 1 671 0
 615 018a 7B68     		ldr	r3, [r7, #4]
 616              	@ 671 "../CMSIS/CM3_V1P30_Core/core_cm3.c" 1
 617 018c 93FAA3F4 		rbit r4, r3
 618              	@ 0 "" 2
 619              		.thumb
 620 0190 FC60     		str	r4, [r7, #12]
 672:../CMSIS/CM3_V1P30_Core/core_cm3.c ****    return(result);
 621              		.loc 1 672 0
 622 0192 FB68     		ldr	r3, [r7, #12]
 673:../CMSIS/CM3_V1P30_Core/core_cm3.c **** }
 623              		.loc 1 673 0
 624 0194 1846     		mov	r0, r3
 625 0196 07F11007 		add	r7, r7, #16
 626 019a BD46     		mov	sp, r7
 627 019c 90BC     		pop	{r4, r7}
 628 019e 7047     		bx	lr
 629              		.cfi_endproc
 630              	.LFE15:
 631              		.size	__RBIT, .-__RBIT
 632              		.align	2
 633              		.global	__LDREXB
 634              		.thumb
ARM GAS  c:\Temp\cctGqfAZ.s 			page 24


 635              		.thumb_func
 636              		.type	__LDREXB, %function
 637              	__LDREXB:
 638              	.LFB16:
 674:../CMSIS/CM3_V1P30_Core/core_cm3.c **** 
 675:../CMSIS/CM3_V1P30_Core/core_cm3.c **** /**
 676:../CMSIS/CM3_V1P30_Core/core_cm3.c ****  * @brief  LDR Exclusive (8 bit)
 677:../CMSIS/CM3_V1P30_Core/core_cm3.c ****  *
 678:../CMSIS/CM3_V1P30_Core/core_cm3.c ****  * @param  *addr  address pointer
 679:../CMSIS/CM3_V1P30_Core/core_cm3.c ****  * @return        value of (*address)
 680:../CMSIS/CM3_V1P30_Core/core_cm3.c ****  *
 681:../CMSIS/CM3_V1P30_Core/core_cm3.c ****  * Exclusive LDR command for 8 bit value
 682:../CMSIS/CM3_V1P30_Core/core_cm3.c ****  */
 683:../CMSIS/CM3_V1P30_Core/core_cm3.c **** uint8_t __LDREXB(uint8_t *addr)
 684:../CMSIS/CM3_V1P30_Core/core_cm3.c **** {
 639              		.loc 1 684 0
 640              		.cfi_startproc
 641              		@ args = 0, pretend = 0, frame = 16
 642              		@ frame_needed = 1, uses_anonymous_args = 0
 643              		@ link register save eliminated.
 644 01a0 90B4     		push	{r4, r7}
 645              	.LCFI36:
 646              		.cfi_def_cfa_offset 8
 647 01a2 84B0     		sub	sp, sp, #16
 648              	.LCFI37:
 649              		.cfi_def_cfa_offset 24
 650 01a4 00AF     		add	r7, sp, #0
 651              		.cfi_offset 7, -4
 652              		.cfi_offset 4, -8
 653              	.LCFI38:
 654              		.cfi_def_cfa_register 7
 655 01a6 7860     		str	r0, [r7, #4]
 685:../CMSIS/CM3_V1P30_Core/core_cm3.c ****     uint8_t result=0;
 656              		.loc 1 685 0
 657 01a8 4FF00003 		mov	r3, #0
 658 01ac FB73     		strb	r3, [r7, #15]
 686:../CMSIS/CM3_V1P30_Core/core_cm3.c ****   
 687:../CMSIS/CM3_V1P30_Core/core_cm3.c ****    __ASM volatile ("ldrexb %0, [%1]" : "=r" (result) : "r" (addr) );
 659              		.loc 1 687 0
 660 01ae 7B68     		ldr	r3, [r7, #4]
 661              	@ 687 "../CMSIS/CM3_V1P30_Core/core_cm3.c" 1
 662 01b0 D3E84F4F 		ldrexb r4, [r3]
 663              	@ 0 "" 2
 664              		.thumb
 665 01b4 FC73     		strb	r4, [r7, #15]
 688:../CMSIS/CM3_V1P30_Core/core_cm3.c ****    return(result);
 666              		.loc 1 688 0
 667 01b6 FB7B     		ldrb	r3, [r7, #15]	@ zero_extendqisi2
 689:../CMSIS/CM3_V1P30_Core/core_cm3.c **** }
 668              		.loc 1 689 0
 669 01b8 1846     		mov	r0, r3
 670 01ba 07F11007 		add	r7, r7, #16
 671 01be BD46     		mov	sp, r7
 672 01c0 90BC     		pop	{r4, r7}
 673 01c2 7047     		bx	lr
 674              		.cfi_endproc
 675              	.LFE16:
ARM GAS  c:\Temp\cctGqfAZ.s 			page 25


 676              		.size	__LDREXB, .-__LDREXB
 677              		.align	2
 678              		.global	__LDREXH
 679              		.thumb
 680              		.thumb_func
 681              		.type	__LDREXH, %function
 682              	__LDREXH:
 683              	.LFB17:
 690:../CMSIS/CM3_V1P30_Core/core_cm3.c **** 
 691:../CMSIS/CM3_V1P30_Core/core_cm3.c **** /**
 692:../CMSIS/CM3_V1P30_Core/core_cm3.c ****  * @brief  LDR Exclusive (16 bit)
 693:../CMSIS/CM3_V1P30_Core/core_cm3.c ****  *
 694:../CMSIS/CM3_V1P30_Core/core_cm3.c ****  * @param  *addr  address pointer
 695:../CMSIS/CM3_V1P30_Core/core_cm3.c ****  * @return        value of (*address)
 696:../CMSIS/CM3_V1P30_Core/core_cm3.c ****  *
 697:../CMSIS/CM3_V1P30_Core/core_cm3.c ****  * Exclusive LDR command for 16 bit values
 698:../CMSIS/CM3_V1P30_Core/core_cm3.c ****  */
 699:../CMSIS/CM3_V1P30_Core/core_cm3.c **** uint16_t __LDREXH(uint16_t *addr)
 700:../CMSIS/CM3_V1P30_Core/core_cm3.c **** {
 684              		.loc 1 700 0
 685              		.cfi_startproc
 686              		@ args = 0, pretend = 0, frame = 16
 687              		@ frame_needed = 1, uses_anonymous_args = 0
 688              		@ link register save eliminated.
 689 01c4 90B4     		push	{r4, r7}
 690              	.LCFI39:
 691              		.cfi_def_cfa_offset 8
 692 01c6 84B0     		sub	sp, sp, #16
 693              	.LCFI40:
 694              		.cfi_def_cfa_offset 24
 695 01c8 00AF     		add	r7, sp, #0
 696              		.cfi_offset 7, -4
 697              		.cfi_offset 4, -8
 698              	.LCFI41:
 699              		.cfi_def_cfa_register 7
 700 01ca 7860     		str	r0, [r7, #4]
 701:../CMSIS/CM3_V1P30_Core/core_cm3.c ****     uint16_t result=0;
 701              		.loc 1 701 0
 702 01cc 4FF00003 		mov	r3, #0
 703 01d0 FB81     		strh	r3, [r7, #14]	@ movhi
 702:../CMSIS/CM3_V1P30_Core/core_cm3.c ****   
 703:../CMSIS/CM3_V1P30_Core/core_cm3.c ****    __ASM volatile ("ldrexh %0, [%1]" : "=r" (result) : "r" (addr) );
 704              		.loc 1 703 0
 705 01d2 7B68     		ldr	r3, [r7, #4]
 706              	@ 703 "../CMSIS/CM3_V1P30_Core/core_cm3.c" 1
 707 01d4 D3E85F4F 		ldrexh r4, [r3]
 708              	@ 0 "" 2
 709              		.thumb
 710 01d8 FC81     		strh	r4, [r7, #14]	@ movhi
 704:../CMSIS/CM3_V1P30_Core/core_cm3.c ****    return(result);
 711              		.loc 1 704 0
 712 01da FB89     		ldrh	r3, [r7, #14]
 705:../CMSIS/CM3_V1P30_Core/core_cm3.c **** }
 713              		.loc 1 705 0
 714 01dc 1846     		mov	r0, r3
 715 01de 07F11007 		add	r7, r7, #16
 716 01e2 BD46     		mov	sp, r7
ARM GAS  c:\Temp\cctGqfAZ.s 			page 26


 717 01e4 90BC     		pop	{r4, r7}
 718 01e6 7047     		bx	lr
 719              		.cfi_endproc
 720              	.LFE17:
 721              		.size	__LDREXH, .-__LDREXH
 722              		.align	2
 723              		.global	__LDREXW
 724              		.thumb
 725              		.thumb_func
 726              		.type	__LDREXW, %function
 727              	__LDREXW:
 728              	.LFB18:
 706:../CMSIS/CM3_V1P30_Core/core_cm3.c **** 
 707:../CMSIS/CM3_V1P30_Core/core_cm3.c **** /**
 708:../CMSIS/CM3_V1P30_Core/core_cm3.c ****  * @brief  LDR Exclusive (32 bit)
 709:../CMSIS/CM3_V1P30_Core/core_cm3.c ****  *
 710:../CMSIS/CM3_V1P30_Core/core_cm3.c ****  * @param  *addr  address pointer
 711:../CMSIS/CM3_V1P30_Core/core_cm3.c ****  * @return        value of (*address)
 712:../CMSIS/CM3_V1P30_Core/core_cm3.c ****  *
 713:../CMSIS/CM3_V1P30_Core/core_cm3.c ****  * Exclusive LDR command for 32 bit values
 714:../CMSIS/CM3_V1P30_Core/core_cm3.c ****  */
 715:../CMSIS/CM3_V1P30_Core/core_cm3.c **** uint32_t __LDREXW(uint32_t *addr)
 716:../CMSIS/CM3_V1P30_Core/core_cm3.c **** {
 729              		.loc 1 716 0
 730              		.cfi_startproc
 731              		@ args = 0, pretend = 0, frame = 16
 732              		@ frame_needed = 1, uses_anonymous_args = 0
 733              		@ link register save eliminated.
 734 01e8 90B4     		push	{r4, r7}
 735              	.LCFI42:
 736              		.cfi_def_cfa_offset 8
 737 01ea 84B0     		sub	sp, sp, #16
 738              	.LCFI43:
 739              		.cfi_def_cfa_offset 24
 740 01ec 00AF     		add	r7, sp, #0
 741              		.cfi_offset 7, -4
 742              		.cfi_offset 4, -8
 743              	.LCFI44:
 744              		.cfi_def_cfa_register 7
 745 01ee 7860     		str	r0, [r7, #4]
 717:../CMSIS/CM3_V1P30_Core/core_cm3.c ****     uint32_t result=0;
 746              		.loc 1 717 0
 747 01f0 4FF00003 		mov	r3, #0
 748 01f4 FB60     		str	r3, [r7, #12]
 718:../CMSIS/CM3_V1P30_Core/core_cm3.c ****   
 719:../CMSIS/CM3_V1P30_Core/core_cm3.c ****    __ASM volatile ("ldrex %0, [%1]" : "=r" (result) : "r" (addr) );
 749              		.loc 1 719 0
 750 01f6 7B68     		ldr	r3, [r7, #4]
 751              	@ 719 "../CMSIS/CM3_V1P30_Core/core_cm3.c" 1
 752 01f8 53E8004F 		ldrex r4, [r3]
 753              	@ 0 "" 2
 754              		.thumb
 755 01fc FC60     		str	r4, [r7, #12]
 720:../CMSIS/CM3_V1P30_Core/core_cm3.c ****    return(result);
 756              		.loc 1 720 0
 757 01fe FB68     		ldr	r3, [r7, #12]
 721:../CMSIS/CM3_V1P30_Core/core_cm3.c **** }
ARM GAS  c:\Temp\cctGqfAZ.s 			page 27


 758              		.loc 1 721 0
 759 0200 1846     		mov	r0, r3
 760 0202 07F11007 		add	r7, r7, #16
 761 0206 BD46     		mov	sp, r7
 762 0208 90BC     		pop	{r4, r7}
 763 020a 7047     		bx	lr
 764              		.cfi_endproc
 765              	.LFE18:
 766              		.size	__LDREXW, .-__LDREXW
 767              		.align	2
 768              		.global	__STREXB
 769              		.thumb
 770              		.thumb_func
 771              		.type	__STREXB, %function
 772              	__STREXB:
 773              	.LFB19:
 722:../CMSIS/CM3_V1P30_Core/core_cm3.c **** 
 723:../CMSIS/CM3_V1P30_Core/core_cm3.c **** /**
 724:../CMSIS/CM3_V1P30_Core/core_cm3.c ****  * @brief  STR Exclusive (8 bit)
 725:../CMSIS/CM3_V1P30_Core/core_cm3.c ****  *
 726:../CMSIS/CM3_V1P30_Core/core_cm3.c ****  * @param  value  value to store
 727:../CMSIS/CM3_V1P30_Core/core_cm3.c ****  * @param  *addr  address pointer
 728:../CMSIS/CM3_V1P30_Core/core_cm3.c ****  * @return        successful / failed
 729:../CMSIS/CM3_V1P30_Core/core_cm3.c ****  *
 730:../CMSIS/CM3_V1P30_Core/core_cm3.c ****  * Exclusive STR command for 8 bit values
 731:../CMSIS/CM3_V1P30_Core/core_cm3.c ****  */
 732:../CMSIS/CM3_V1P30_Core/core_cm3.c **** uint32_t __STREXB(uint8_t value, uint8_t *addr)
 733:../CMSIS/CM3_V1P30_Core/core_cm3.c **** {
 774              		.loc 1 733 0
 775              		.cfi_startproc
 776              		@ args = 0, pretend = 0, frame = 16
 777              		@ frame_needed = 1, uses_anonymous_args = 0
 778              		@ link register save eliminated.
 779 020c 90B4     		push	{r4, r7}
 780              	.LCFI45:
 781              		.cfi_def_cfa_offset 8
 782 020e 84B0     		sub	sp, sp, #16
 783              	.LCFI46:
 784              		.cfi_def_cfa_offset 24
 785 0210 00AF     		add	r7, sp, #0
 786              		.cfi_offset 7, -4
 787              		.cfi_offset 4, -8
 788              	.LCFI47:
 789              		.cfi_def_cfa_register 7
 790 0212 0346     		mov	r3, r0
 791 0214 3960     		str	r1, [r7, #0]
 792 0216 FB71     		strb	r3, [r7, #7]
 734:../CMSIS/CM3_V1P30_Core/core_cm3.c ****    uint32_t result=0;
 793              		.loc 1 734 0
 794 0218 4FF00003 		mov	r3, #0
 795 021c FB60     		str	r3, [r7, #12]
 735:../CMSIS/CM3_V1P30_Core/core_cm3.c ****   
 736:../CMSIS/CM3_V1P30_Core/core_cm3.c ****    __ASM volatile ("strexb %0, %2, [%1]" : "=r" (result) : "r" (addr), "r" (value) );
 796              		.loc 1 736 0
 797 021e 3B68     		ldr	r3, [r7, #0]
 798 0220 FA79     		ldrb	r2, [r7, #7]
 799              	@ 736 "../CMSIS/CM3_V1P30_Core/core_cm3.c" 1
ARM GAS  c:\Temp\cctGqfAZ.s 			page 28


 800 0222 C3E8442F 		strexb r4, r2, [r3]
 801              	@ 0 "" 2
 802              		.thumb
 803 0226 FC60     		str	r4, [r7, #12]
 737:../CMSIS/CM3_V1P30_Core/core_cm3.c ****    return(result);
 804              		.loc 1 737 0
 805 0228 FB68     		ldr	r3, [r7, #12]
 738:../CMSIS/CM3_V1P30_Core/core_cm3.c **** }
 806              		.loc 1 738 0
 807 022a 1846     		mov	r0, r3
 808 022c 07F11007 		add	r7, r7, #16
 809 0230 BD46     		mov	sp, r7
 810 0232 90BC     		pop	{r4, r7}
 811 0234 7047     		bx	lr
 812              		.cfi_endproc
 813              	.LFE19:
 814              		.size	__STREXB, .-__STREXB
 815 0236 00BF     		.align	2
 816              		.global	__STREXH
 817              		.thumb
 818              		.thumb_func
 819              		.type	__STREXH, %function
 820              	__STREXH:
 821              	.LFB20:
 739:../CMSIS/CM3_V1P30_Core/core_cm3.c **** 
 740:../CMSIS/CM3_V1P30_Core/core_cm3.c **** /**
 741:../CMSIS/CM3_V1P30_Core/core_cm3.c ****  * @brief  STR Exclusive (16 bit)
 742:../CMSIS/CM3_V1P30_Core/core_cm3.c ****  *
 743:../CMSIS/CM3_V1P30_Core/core_cm3.c ****  * @param  value  value to store
 744:../CMSIS/CM3_V1P30_Core/core_cm3.c ****  * @param  *addr  address pointer
 745:../CMSIS/CM3_V1P30_Core/core_cm3.c ****  * @return        successful / failed
 746:../CMSIS/CM3_V1P30_Core/core_cm3.c ****  *
 747:../CMSIS/CM3_V1P30_Core/core_cm3.c ****  * Exclusive STR command for 16 bit values
 748:../CMSIS/CM3_V1P30_Core/core_cm3.c ****  */
 749:../CMSIS/CM3_V1P30_Core/core_cm3.c **** uint32_t __STREXH(uint16_t value, uint16_t *addr)
 750:../CMSIS/CM3_V1P30_Core/core_cm3.c **** {
 822              		.loc 1 750 0
 823              		.cfi_startproc
 824              		@ args = 0, pretend = 0, frame = 16
 825              		@ frame_needed = 1, uses_anonymous_args = 0
 826              		@ link register save eliminated.
 827 0238 90B4     		push	{r4, r7}
 828              	.LCFI48:
 829              		.cfi_def_cfa_offset 8
 830 023a 84B0     		sub	sp, sp, #16
 831              	.LCFI49:
 832              		.cfi_def_cfa_offset 24
 833 023c 00AF     		add	r7, sp, #0
 834              		.cfi_offset 7, -4
 835              		.cfi_offset 4, -8
 836              	.LCFI50:
 837              		.cfi_def_cfa_register 7
 838 023e 0346     		mov	r3, r0
 839 0240 3960     		str	r1, [r7, #0]
 840 0242 FB80     		strh	r3, [r7, #6]	@ movhi
 751:../CMSIS/CM3_V1P30_Core/core_cm3.c ****    uint32_t result=0;
 841              		.loc 1 751 0
ARM GAS  c:\Temp\cctGqfAZ.s 			page 29


 842 0244 4FF00003 		mov	r3, #0
 843 0248 FB60     		str	r3, [r7, #12]
 752:../CMSIS/CM3_V1P30_Core/core_cm3.c ****   
 753:../CMSIS/CM3_V1P30_Core/core_cm3.c ****    __ASM volatile ("strexh %0, %2, [%1]" : "=r" (result) : "r" (addr), "r" (value) );
 844              		.loc 1 753 0
 845 024a 3B68     		ldr	r3, [r7, #0]
 846 024c FA88     		ldrh	r2, [r7, #6]	@ movhi
 847              	@ 753 "../CMSIS/CM3_V1P30_Core/core_cm3.c" 1
 848 024e C3E8542F 		strexh r4, r2, [r3]
 849              	@ 0 "" 2
 850              		.thumb
 851 0252 FC60     		str	r4, [r7, #12]
 754:../CMSIS/CM3_V1P30_Core/core_cm3.c ****    return(result);
 852              		.loc 1 754 0
 853 0254 FB68     		ldr	r3, [r7, #12]
 755:../CMSIS/CM3_V1P30_Core/core_cm3.c **** }
 854              		.loc 1 755 0
 855 0256 1846     		mov	r0, r3
 856 0258 07F11007 		add	r7, r7, #16
 857 025c BD46     		mov	sp, r7
 858 025e 90BC     		pop	{r4, r7}
 859 0260 7047     		bx	lr
 860              		.cfi_endproc
 861              	.LFE20:
 862              		.size	__STREXH, .-__STREXH
 863 0262 00BF     		.align	2
 864              		.global	__STREXW
 865              		.thumb
 866              		.thumb_func
 867              		.type	__STREXW, %function
 868              	__STREXW:
 869              	.LFB21:
 756:../CMSIS/CM3_V1P30_Core/core_cm3.c **** 
 757:../CMSIS/CM3_V1P30_Core/core_cm3.c **** /**
 758:../CMSIS/CM3_V1P30_Core/core_cm3.c ****  * @brief  STR Exclusive (32 bit)
 759:../CMSIS/CM3_V1P30_Core/core_cm3.c ****  *
 760:../CMSIS/CM3_V1P30_Core/core_cm3.c ****  * @param  value  value to store
 761:../CMSIS/CM3_V1P30_Core/core_cm3.c ****  * @param  *addr  address pointer
 762:../CMSIS/CM3_V1P30_Core/core_cm3.c ****  * @return        successful / failed
 763:../CMSIS/CM3_V1P30_Core/core_cm3.c ****  *
 764:../CMSIS/CM3_V1P30_Core/core_cm3.c ****  * Exclusive STR command for 32 bit values
 765:../CMSIS/CM3_V1P30_Core/core_cm3.c ****  */
 766:../CMSIS/CM3_V1P30_Core/core_cm3.c **** uint32_t __STREXW(uint32_t value, uint32_t *addr)
 767:../CMSIS/CM3_V1P30_Core/core_cm3.c **** {
 870              		.loc 1 767 0
 871              		.cfi_startproc
 872              		@ args = 0, pretend = 0, frame = 16
 873              		@ frame_needed = 1, uses_anonymous_args = 0
 874              		@ link register save eliminated.
 875 0264 90B4     		push	{r4, r7}
 876              	.LCFI51:
 877              		.cfi_def_cfa_offset 8
 878 0266 84B0     		sub	sp, sp, #16
 879              	.LCFI52:
 880              		.cfi_def_cfa_offset 24
 881 0268 00AF     		add	r7, sp, #0
 882              		.cfi_offset 7, -4
ARM GAS  c:\Temp\cctGqfAZ.s 			page 30


 883              		.cfi_offset 4, -8
 884              	.LCFI53:
 885              		.cfi_def_cfa_register 7
 886 026a 7860     		str	r0, [r7, #4]
 887 026c 3960     		str	r1, [r7, #0]
 768:../CMSIS/CM3_V1P30_Core/core_cm3.c ****    uint32_t result=0;
 888              		.loc 1 768 0
 889 026e 4FF00003 		mov	r3, #0
 890 0272 FB60     		str	r3, [r7, #12]
 769:../CMSIS/CM3_V1P30_Core/core_cm3.c ****   
 770:../CMSIS/CM3_V1P30_Core/core_cm3.c ****    __ASM volatile ("strex %0, %2, [%1]" : "=r" (result) : "r" (addr), "r" (value) );
 891              		.loc 1 770 0
 892 0274 3B68     		ldr	r3, [r7, #0]
 893 0276 7A68     		ldr	r2, [r7, #4]
 894              	@ 770 "../CMSIS/CM3_V1P30_Core/core_cm3.c" 1
 895 0278 43E80024 		strex r4, r2, [r3]
 896              	@ 0 "" 2
 897              		.thumb
 898 027c FC60     		str	r4, [r7, #12]
 771:../CMSIS/CM3_V1P30_Core/core_cm3.c ****    return(result);
 899              		.loc 1 771 0
 900 027e FB68     		ldr	r3, [r7, #12]
 772:../CMSIS/CM3_V1P30_Core/core_cm3.c **** }
 901              		.loc 1 772 0
 902 0280 1846     		mov	r0, r3
 903 0282 07F11007 		add	r7, r7, #16
 904 0286 BD46     		mov	sp, r7
 905 0288 90BC     		pop	{r4, r7}
 906 028a 7047     		bx	lr
 907              		.cfi_endproc
 908              	.LFE21:
 909              		.size	__STREXW, .-__STREXW
 910              	.Letext0: