ARM GAS  c:\Temp\ccpWk8OJ.s 			page 1


   1              		.syntax unified
   2              		.cpu cortex-m3
   3              		.fpu softvfp
   4              		.eabi_attribute 20, 1
   5              		.eabi_attribute 21, 1
   6              		.eabi_attribute 23, 3
   7              		.eabi_attribute 24, 1
   8              		.eabi_attribute 25, 1
   9              		.eabi_attribute 26, 1
  10              		.eabi_attribute 30, 6
  11              		.eabi_attribute 18, 4
  12              		.thumb
  13              		.file	"main.c"
  20 0000 BA000000 		.text
  20      02009E00 
  20      00000201 
  20      FB0E0D00 
  20      01010101 
  21              	.Ltext0:
  22              		.cfi_sections	.debug_frame
  23              		.section	.rodata
  24              		.align	2
  25              	.LC0:
  26 0000 54657374 		.ascii	"Testtext \012\015\000"
  26      74657874 
  26      200A0D00 
  27              		.text
  28              		.align	2
  29              		.global	main
  30              		.thumb
  31              		.thumb_func
  32              		.type	main, %function
  33              	main:
  34              	.LFB0:
  35              		.file 1 "main.c"
   1:main.c        **** #include "usart.h"
   2:main.c        **** #include <stdlib.h>
   3:main.c        **** 
   4:main.c        **** void main(void)
   5:main.c        **** {
  36              		.loc 1 5 0
  37              		.cfi_startproc
  38              		@ args = 0, pretend = 0, frame = 24
  39              		@ frame_needed = 1, uses_anonymous_args = 0
  40 0000 90B5     		push	{r4, r7, lr}
  41              	.LCFI0:
  42              		.cfi_def_cfa_offset 12
  43 0002 8BB0     		sub	sp, sp, #44
  44              	.LCFI1:
  45              		.cfi_def_cfa_offset 56
  46 0004 04AF     		add	r7, sp, #16
ARM GAS  c:\Temp\ccpWk8OJ.s 			page 2


  47              		.cfi_offset 14, -4
  48              		.cfi_offset 7, -8
  49              		.cfi_offset 4, -12
  50              	.LCFI2:
  51              		.cfi_def_cfa 7, 40
   6:main.c        **** 	uint8_t usart_handle;
   7:main.c        **** 	char usart_string[] ="Testtext \n\r";
  52              		.loc 1 7 0
  53 0006 40F20003 		movw	r3, #:lower16:.LC0
  54 000a C0F20003 		movt	r3, #:upper16:.LC0
  55 000e 07F10804 		add	r4, r7, #8
  56 0012 93E80700 		ldmia	r3, {r0, r1, r2}
  57 0016 84E80700 		stmia	r4, {r0, r1, r2}
   8:main.c        **** 	uint8_t receive_array[2];
   9:main.c        **** 	
  10:main.c        **** 	usart_handle=usart_open(0);
  58              		.loc 1 10 0
  59 001a 4FF00000 		mov	r0, #0
  60 001e FFF7FEFF 		bl	usart_open
  61 0022 0346     		mov	r3, r0
  62 0024 FB75     		strb	r3, [r7, #23]
  11:main.c        **** 	usart_init(usart_handle);
  63              		.loc 1 11 0
  64 0026 FB7D     		ldrb	r3, [r7, #23]	@ zero_extendqisi2
  65 0028 1846     		mov	r0, r3
  66 002a FFF7FEFF 		bl	usart_init
  12:main.c        **** 	usart_configure(usart_handle, 9600, 0, 1, 8, NULL, 0);
  67              		.loc 1 12 0
  68 002e FB7D     		ldrb	r3, [r7, #23]	@ zero_extendqisi2
  69 0030 4FF00802 		mov	r2, #8
  70 0034 0092     		str	r2, [sp, #0]
  71 0036 4FF00002 		mov	r2, #0
  72 003a 0192     		str	r2, [sp, #4]
  73 003c 4FF00002 		mov	r2, #0
  74 0040 0292     		str	r2, [sp, #8]
  75 0042 1846     		mov	r0, r3
  76 0044 4FF41651 		mov	r1, #9600
  77 0048 4FF00002 		mov	r2, #0
  78 004c 4FF00103 		mov	r3, #1
  79 0050 FFF7FEFF 		bl	usart_configure
  80 0054 00E0     		b	.L3
  81              	.L4:
  13:main.c        **** 	while(1)
  14:main.c        **** 	{
  15:main.c        **** 		if (usart_read(usart_handle, receive_array, 2) > 0)
  16:main.c        **** 		{
  17:main.c        **** 			usart_write(usart_handle, (uint8_t*)receive_array, sizeof(receive_array));
  18:main.c        **** 		}
  19:main.c        **** 	}
  82              		.loc 1 19 0
  83 0056 00BF     		nop
  84              	.L3:
  15:main.c        **** 		if (usart_read(usart_handle, receive_array, 2) > 0)
  85              		.loc 1 15 0
  86 0058 FA7D     		ldrb	r2, [r7, #23]	@ zero_extendqisi2
  87 005a 07F10403 		add	r3, r7, #4
  88 005e 1046     		mov	r0, r2
ARM GAS  c:\Temp\ccpWk8OJ.s 			page 3


  89 0060 1946     		mov	r1, r3
  90 0062 4FF00202 		mov	r2, #2
  91 0066 FFF7FEFF 		bl	usart_read
  92 006a 0346     		mov	r3, r0
  93 006c 002B     		cmp	r3, #0
  94 006e F2D0     		beq	.L4
  17:main.c        **** 			usart_write(usart_handle, (uint8_t*)receive_array, sizeof(receive_array));
  95              		.loc 1 17 0
  96 0070 FA7D     		ldrb	r2, [r7, #23]	@ zero_extendqisi2
  97 0072 07F10403 		add	r3, r7, #4
  98 0076 1046     		mov	r0, r2
  99 0078 1946     		mov	r1, r3
 100 007a 4FF00202 		mov	r2, #2
 101 007e FFF7FEFF 		bl	usart_write
 102              		.loc 1 19 0
 103 0082 E9E7     		b	.L3
 104              		.cfi_endproc
 105              	.LFE0:
 106              		.size	main, .-main
 107              	.Letext0: