ARM GAS  c:\Temp\ccEJtNXe.s 			page 1


   1              		.syntax unified
   2              		.cpu cortex-m3
   3              		.fpu softvfp
   4              		.eabi_attribute 20, 1
   5              		.eabi_attribute 21, 1
   6              		.eabi_attribute 23, 3
   7              		.eabi_attribute 24, 1
   8              		.eabi_attribute 25, 1
   9              		.eabi_attribute 26, 1
  10              		.eabi_attribute 30, 6
  11              		.eabi_attribute 18, 4
  12              		.thumb
  13              		.file	"usart.c"
  20 0000 BC010000 		.text
  20      0200D100 
  20      00000201 
  20      FB0E0D00 
  20      01010101 
  21              	.Ltext0:
  22              		.cfi_sections	.debug_frame
  23              		.comm	usart_array,32,4
  24              		.align	2
  25              		.global	usart_open
  26              		.thumb
  27              		.thumb_func
  28              		.type	usart_open, %function
  29              	usart_open:
  30              	.LFB56:
  31              		.file 1 "usart.c"
   1:usart.c       **** #include "usart.h"
   2:usart.c       **** #include "global_defines.h"
   3:usart.c       **** #include <stdint.h>
   4:usart.c       **** #include <stdlib.h>
   5:usart.c       **** #include "LPC17XX.h"
   6:usart.c       **** 
   7:usart.c       **** 
   8:usart.c       **** 
   9:usart.c       **** #define USART_NOT_IN_USE				0
  10:usart.c       **** #define USART_IN_USE						1
  11:usart.c       **** #define PCONP_REGISTER					0x400FC0C4
  12:usart.c       **** #define UART0_START_REGISTER		0x4000C000
  13:usart.c       **** #define UART1_START_REGISTER		0x40010000
  14:usart.c       **** #define UART2_START_REGISTER		0x40098000
  15:usart.c       **** #define UART3_START_REGISTER		0x4009C000
  16:usart.c       **** #define UART_LSR_OFFSET					14
  17:usart.c       **** #define UART_FIFOLVL_OFFSET			58
  18:usart.c       **** 
  19:usart.c       **** struct usart_mgmt{uint8_t isInUse; uint8_t handle; uintptr_t start_register;};
  20:usart.c       **** struct usart_mgmt usart_array[4];
  21:usart.c       **** 
  22:usart.c       **** uint16_t usart_calculate_divider(uint32_t baudrate);
ARM GAS  c:\Temp\ccEJtNXe.s 			page 2


  23:usart.c       **** 
  24:usart.c       **** uint8_t usart_open(uint8_t number)
  25:usart.c       **** {
  32              		.loc 1 25 0
  33              		.cfi_startproc
  34              		@ args = 0, pretend = 0, frame = 8
  35              		@ frame_needed = 1, uses_anonymous_args = 0
  36              		@ link register save eliminated.
  37 0000 80B4     		push	{r7}
  38              	.LCFI0:
  39              		.cfi_def_cfa_offset 4
  40 0002 83B0     		sub	sp, sp, #12
  41              	.LCFI1:
  42              		.cfi_def_cfa_offset 16
  43 0004 00AF     		add	r7, sp, #0
  44              		.cfi_offset 7, -4
  45              	.LCFI2:
  46              		.cfi_def_cfa_register 7
  47 0006 0346     		mov	r3, r0
  48 0008 FB71     		strb	r3, [r7, #7]
  26:usart.c       **** 	if (number < 4)
  49              		.loc 1 26 0
  50 000a FB79     		ldrb	r3, [r7, #7]	@ zero_extendqisi2
  51 000c 032B     		cmp	r3, #3
  52 000e 66D8     		bhi	.L2
  27:usart.c       **** 	{
  28:usart.c       **** 		if (usart_array[number].isInUse == USART_NOT_IN_USE)
  53              		.loc 1 28 0
  54 0010 FA79     		ldrb	r2, [r7, #7]	@ zero_extendqisi2
  55 0012 40F20003 		movw	r3, #:lower16:usart_array
  56 0016 C0F20003 		movt	r3, #:upper16:usart_array
  57 001a 13F83230 		ldrb	r3, [r3, r2, lsl #3]	@ zero_extendqisi2
  58 001e 002B     		cmp	r3, #0
  59 0020 5DD1     		bne	.L2
  29:usart.c       **** 		{
  30:usart.c       **** 			usart_array[number].isInUse=USART_IN_USE;
  60              		.loc 1 30 0
  61 0022 FA79     		ldrb	r2, [r7, #7]	@ zero_extendqisi2
  62 0024 40F20003 		movw	r3, #:lower16:usart_array
  63 0028 C0F20003 		movt	r3, #:upper16:usart_array
  64 002c 4FF00101 		mov	r1, #1
  65 0030 03F83210 		strb	r1, [r3, r2, lsl #3]
  31:usart.c       **** 			usart_array[number].handle=number;
  66              		.loc 1 31 0
  67 0034 FB79     		ldrb	r3, [r7, #7]	@ zero_extendqisi2
  68 0036 40F20002 		movw	r2, #:lower16:usart_array
  69 003a C0F20002 		movt	r2, #:upper16:usart_array
  70 003e 4FEAC303 		lsl	r3, r3, #3
  71 0042 D318     		adds	r3, r2, r3
  72 0044 FA79     		ldrb	r2, [r7, #7]
  73 0046 5A70     		strb	r2, [r3, #1]
  32:usart.c       **** 			switch(number)
  74              		.loc 1 32 0
  75 0048 FB79     		ldrb	r3, [r7, #7]	@ zero_extendqisi2
  76 004a 032B     		cmp	r3, #3
  77 004c 42D8     		bhi	.L3
  78 004e 01A2     		adr	r2, .L8
ARM GAS  c:\Temp\ccEJtNXe.s 			page 3


  79 0050 52F823F0 		ldr	pc, [r2, r3, lsl #2]
  80              		.align	2
  81              	.L8:
  82 0054 65000000 		.word	.L4+1
  83 0058 81000000 		.word	.L5+1
  84 005c 9D000000 		.word	.L6+1
  85 0060 B9000000 		.word	.L7+1
  86              	.L4:
  33:usart.c       **** 			{
  34:usart.c       **** 				case	0	:		usart_array[number].start_register=UART0_START_REGISTER;
  87              		.loc 1 34 0
  88 0064 FB79     		ldrb	r3, [r7, #7]	@ zero_extendqisi2
  89 0066 40F20002 		movw	r2, #:lower16:usart_array
  90 006a C0F20002 		movt	r2, #:upper16:usart_array
  91 006e 4FEAC303 		lsl	r3, r3, #3
  92 0072 D318     		adds	r3, r2, r3
  93 0074 4FF44042 		mov	r2, #49152
  94 0078 C4F20002 		movt	r2, 16384
  95 007c 5A60     		str	r2, [r3, #4]
  35:usart.c       **** 										break;
  96              		.loc 1 35 0
  97 007e 29E0     		b	.L3
  98              	.L5:
  36:usart.c       **** 				case	1	:		usart_array[number].start_register=UART1_START_REGISTER;
  99              		.loc 1 36 0
 100 0080 FB79     		ldrb	r3, [r7, #7]	@ zero_extendqisi2
 101 0082 40F20002 		movw	r2, #:lower16:usart_array
 102 0086 C0F20002 		movt	r2, #:upper16:usart_array
 103 008a 4FEAC303 		lsl	r3, r3, #3
 104 008e D318     		adds	r3, r2, r3
 105 0090 4FF00002 		mov	r2, #0
 106 0094 C4F20102 		movt	r2, 16385
 107 0098 5A60     		str	r2, [r3, #4]
  37:usart.c       **** 										break;
 108              		.loc 1 37 0
 109 009a 1BE0     		b	.L3
 110              	.L6:
  38:usart.c       **** 				case	2	:		usart_array[number].start_register=UART2_START_REGISTER;
 111              		.loc 1 38 0
 112 009c FB79     		ldrb	r3, [r7, #7]	@ zero_extendqisi2
 113 009e 40F20002 		movw	r2, #:lower16:usart_array
 114 00a2 C0F20002 		movt	r2, #:upper16:usart_array
 115 00a6 4FEAC303 		lsl	r3, r3, #3
 116 00aa D318     		adds	r3, r2, r3
 117 00ac 4FF40042 		mov	r2, #32768
 118 00b0 C4F20902 		movt	r2, 16393
 119 00b4 5A60     		str	r2, [r3, #4]
  39:usart.c       **** 										break;
 120              		.loc 1 39 0
 121 00b6 0DE0     		b	.L3
 122              	.L7:
  40:usart.c       **** 				case	3	:		usart_array[number].start_register=UART3_START_REGISTER;
 123              		.loc 1 40 0
 124 00b8 FB79     		ldrb	r3, [r7, #7]	@ zero_extendqisi2
 125 00ba 40F20002 		movw	r2, #:lower16:usart_array
 126 00be C0F20002 		movt	r2, #:upper16:usart_array
 127 00c2 4FEAC303 		lsl	r3, r3, #3
ARM GAS  c:\Temp\ccEJtNXe.s 			page 4


 128 00c6 D318     		adds	r3, r2, r3
 129 00c8 4FF44042 		mov	r2, #49152
 130 00cc C4F20902 		movt	r2, 16393
 131 00d0 5A60     		str	r2, [r3, #4]
  41:usart.c       **** 										break;
 132              		.loc 1 41 0
 133 00d2 00BF     		nop
 134              	.L3:
  42:usart.c       **** 			}
  43:usart.c       **** 			return number+1; //Handle=USART+1
 135              		.loc 1 43 0
 136 00d4 FB79     		ldrb	r3, [r7, #7]
 137 00d6 03F10103 		add	r3, r3, #1
 138 00da DBB2     		uxtb	r3, r3
 139 00dc 01E0     		b	.L9
 140              	.L2:
  44:usart.c       **** 		}
  45:usart.c       **** 	}
  46:usart.c       **** 	return RETURN_FAIL;
 141              		.loc 1 46 0
 142 00de 4FF00103 		mov	r3, #1
 143              	.L9:
  47:usart.c       **** }
 144              		.loc 1 47 0
 145 00e2 1846     		mov	r0, r3
 146 00e4 07F10C07 		add	r7, r7, #12
 147 00e8 BD46     		mov	sp, r7
 148 00ea 80BC     		pop	{r7}
 149 00ec 7047     		bx	lr
 150              		.cfi_endproc
 151              	.LFE56:
 152              		.size	usart_open, .-usart_open
 153 00ee 00BF     		.align	2
 154              		.global	usart_init
 155              		.thumb
 156              		.thumb_func
 157              		.type	usart_init, %function
 158              	usart_init:
 159              	.LFB57:
  48:usart.c       **** 
  49:usart.c       **** uint8_t usart_init(uint8_t handle)
  50:usart.c       **** {
 160              		.loc 1 50 0
 161              		.cfi_startproc
 162              		@ args = 0, pretend = 0, frame = 16
 163              		@ frame_needed = 1, uses_anonymous_args = 0
 164              		@ link register save eliminated.
 165 00f0 80B4     		push	{r7}
 166              	.LCFI3:
 167              		.cfi_def_cfa_offset 4
 168 00f2 85B0     		sub	sp, sp, #20
 169              	.LCFI4:
 170              		.cfi_def_cfa_offset 24
 171 00f4 00AF     		add	r7, sp, #0
 172              		.cfi_offset 7, -4
 173              	.LCFI5:
 174              		.cfi_def_cfa_register 7
ARM GAS  c:\Temp\ccEJtNXe.s 			page 5


 175 00f6 0346     		mov	r3, r0
 176 00f8 FB71     		strb	r3, [r7, #7]
  51:usart.c       **** 	uintptr_t *PCONP; //Power Control for Peripherals Register
  52:usart.c       **** 	PCONP=(uintptr_t *)PCONP_REGISTER;
 177              		.loc 1 52 0
 178 00fa 4CF2C403 		movw	r3, #49348
 179 00fe C4F20F03 		movt	r3, 16399
 180 0102 FB60     		str	r3, [r7, #12]
  53:usart.c       **** 	
  54:usart.c       **** 	if ( (handle > 0) && (handle < 5) && (usart_array[handle-1].isInUse == USART_IN_USE) )
 181              		.loc 1 54 0
 182 0104 FB79     		ldrb	r3, [r7, #7]	@ zero_extendqisi2
 183 0106 002B     		cmp	r3, #0
 184 0108 3DD0     		beq	.L11
 185              		.loc 1 54 0 is_stmt 0 discriminator 1
 186 010a FB79     		ldrb	r3, [r7, #7]	@ zero_extendqisi2
 187 010c 042B     		cmp	r3, #4
 188 010e 3AD8     		bhi	.L11
 189 0110 FB79     		ldrb	r3, [r7, #7]	@ zero_extendqisi2
 190 0112 03F1FF32 		add	r2, r3, #-1
 191 0116 40F20003 		movw	r3, #:lower16:usart_array
 192 011a C0F20003 		movt	r3, #:upper16:usart_array
 193 011e 13F83230 		ldrb	r3, [r3, r2, lsl #3]	@ zero_extendqisi2
 194 0122 012B     		cmp	r3, #1
 195 0124 2FD1     		bne	.L11
  55:usart.c       **** 	{
  56:usart.c       **** 		switch (handle)
 196              		.loc 1 56 0 is_stmt 1
 197 0126 FB79     		ldrb	r3, [r7, #7]	@ zero_extendqisi2
 198 0128 03F1FF33 		add	r3, r3, #-1
 199 012c 032B     		cmp	r3, #3
 200 012e 27D8     		bhi	.L12
 201 0130 01A2     		adr	r2, .L17
 202 0132 52F823F0 		ldr	pc, [r2, r3, lsl #2]
 203 0136 00BF     		.align	2
 204              	.L17:
 205 0138 49010000 		.word	.L13+1
 206 013c 57010000 		.word	.L14+1
 207 0140 65010000 		.word	.L15+1
 208 0144 73010000 		.word	.L16+1
 209              	.L13:
  57:usart.c       **** 		{
  58:usart.c       **** 			case 1	:	*PCONP|=(1<<3);
 210              		.loc 1 58 0
 211 0148 FB68     		ldr	r3, [r7, #12]
 212 014a 1B68     		ldr	r3, [r3, #0]
 213 014c 43F00802 		orr	r2, r3, #8
 214 0150 FB68     		ldr	r3, [r7, #12]
 215 0152 1A60     		str	r2, [r3, #0]
  59:usart.c       **** 								break;
 216              		.loc 1 59 0
 217 0154 14E0     		b	.L12
 218              	.L14:
  60:usart.c       **** 			case 2	:	*PCONP|=(1<<4);
 219              		.loc 1 60 0
 220 0156 FB68     		ldr	r3, [r7, #12]
 221 0158 1B68     		ldr	r3, [r3, #0]
ARM GAS  c:\Temp\ccEJtNXe.s 			page 6


 222 015a 43F01002 		orr	r2, r3, #16
 223 015e FB68     		ldr	r3, [r7, #12]
 224 0160 1A60     		str	r2, [r3, #0]
  61:usart.c       **** 								break;
 225              		.loc 1 61 0
 226 0162 0DE0     		b	.L12
 227              	.L15:
  62:usart.c       **** 			case 3	:	*PCONP|=(1<<24);
 228              		.loc 1 62 0
 229 0164 FB68     		ldr	r3, [r7, #12]
 230 0166 1B68     		ldr	r3, [r3, #0]
 231 0168 43F08072 		orr	r2, r3, #16777216
 232 016c FB68     		ldr	r3, [r7, #12]
 233 016e 1A60     		str	r2, [r3, #0]
  63:usart.c       **** 								break;
 234              		.loc 1 63 0
 235 0170 06E0     		b	.L12
 236              	.L16:
  64:usart.c       **** 			case 4	:	*PCONP|=(1<<25);
 237              		.loc 1 64 0
 238 0172 FB68     		ldr	r3, [r7, #12]
 239 0174 1B68     		ldr	r3, [r3, #0]
 240 0176 43F00072 		orr	r2, r3, #33554432
 241 017a FB68     		ldr	r3, [r7, #12]
 242 017c 1A60     		str	r2, [r3, #0]
  65:usart.c       **** 								break;
 243              		.loc 1 65 0
 244 017e 00BF     		nop
 245              	.L12:
  66:usart.c       **** 		}
  67:usart.c       **** 		return RETURN_SUCCESS;
 246              		.loc 1 67 0
 247 0180 4FF00003 		mov	r3, #0
 248 0184 01E0     		b	.L18
 249              	.L11:
  68:usart.c       **** 	}
  69:usart.c       **** 	return RETURN_FAIL;
 250              		.loc 1 69 0
 251 0186 4FF00103 		mov	r3, #1
 252              	.L18:
  70:usart.c       **** 		
  71:usart.c       **** }
 253              		.loc 1 71 0
 254 018a 1846     		mov	r0, r3
 255 018c 07F11407 		add	r7, r7, #20
 256 0190 BD46     		mov	sp, r7
 257 0192 80BC     		pop	{r7}
 258 0194 7047     		bx	lr
 259              		.cfi_endproc
 260              	.LFE57:
 261              		.size	usart_init, .-usart_init
 262 0196 00BF     		.align	2
 263              		.global	usart_configure
 264              		.thumb
 265              		.thumb_func
 266              		.type	usart_configure, %function
 267              	usart_configure:
ARM GAS  c:\Temp\ccEJtNXe.s 			page 7


 268              	.LFB58:
  72:usart.c       **** 
  73:usart.c       **** uint8_t usart_configure(uint8_t handle, uint32_t bitrate, uint8_t parity, uint8_t stop_bit, uint8_t
  74:usart.c       **** {
 269              		.loc 1 74 0
 270              		.cfi_startproc
 271              		@ args = 12, pretend = 0, frame = 48
 272              		@ frame_needed = 1, uses_anonymous_args = 0
 273 0198 80B5     		push	{r7, lr}
 274              	.LCFI6:
 275              		.cfi_def_cfa_offset 8
 276 019a 8CB0     		sub	sp, sp, #48
 277              	.LCFI7:
 278              		.cfi_def_cfa_offset 56
 279 019c 00AF     		add	r7, sp, #0
 280              		.cfi_offset 14, -4
 281              		.cfi_offset 7, -8
 282              	.LCFI8:
 283              		.cfi_def_cfa_register 7
 284 019e B960     		str	r1, [r7, #8]
 285 01a0 0146     		mov	r1, r0
 286 01a2 F973     		strb	r1, [r7, #15]
 287 01a4 FA71     		strb	r2, [r7, #7]
 288 01a6 BB71     		strb	r3, [r7, #6]
  75:usart.c       **** 	uint16_t divider;
  76:usart.c       **** 	uintptr_t *U0LCR;
  77:usart.c       **** 	uintptr_t *U0DLL;
  78:usart.c       **** 	uintptr_t *U0DLM;
  79:usart.c       **** 	uintptr_t *U0FCR;
  80:usart.c       **** 	uintptr_t *PINSEL0;
  81:usart.c       **** 	uintptr_t *PINMODE0;
  82:usart.c       **** 	
  83:usart.c       **** 	//Implemntierung nur für USART0
  84:usart.c       **** 	U0LCR=0x4000C00C;
 289              		.loc 1 84 0
 290 01a8 4CF20C03 		movw	r3, #49164
 291 01ac C4F20003 		movt	r3, 16384
 292 01b0 FB62     		str	r3, [r7, #44]
  85:usart.c       **** 	U0DLL=0x4000C000;
 293              		.loc 1 85 0
 294 01b2 4FF44043 		mov	r3, #49152
 295 01b6 C4F20003 		movt	r3, 16384
 296 01ba BB62     		str	r3, [r7, #40]
  86:usart.c       **** 	U0DLM=0x4000C004;
 297              		.loc 1 86 0
 298 01bc 4CF20403 		movw	r3, #49156
 299 01c0 C4F20003 		movt	r3, 16384
 300 01c4 7B62     		str	r3, [r7, #36]
  87:usart.c       **** 	U0FCR=0x4000C008;
 301              		.loc 1 87 0
 302 01c6 4CF20803 		movw	r3, #49160
 303 01ca C4F20003 		movt	r3, 16384
 304 01ce 3B62     		str	r3, [r7, #32]
  88:usart.c       **** 	PINSEL0=0x4002C000;
 305              		.loc 1 88 0
 306 01d0 4FF44043 		mov	r3, #49152
 307 01d4 C4F20203 		movt	r3, 16386
ARM GAS  c:\Temp\ccEJtNXe.s 			page 8


 308 01d8 FB61     		str	r3, [r7, #28]
  89:usart.c       **** 	PINMODE0=0x4002C040;
 309              		.loc 1 89 0
 310 01da 4CF24003 		movw	r3, #49216
 311 01de C4F20203 		movt	r3, 16386
 312 01e2 BB61     		str	r3, [r7, #24]
  90:usart.c       **** 	
  91:usart.c       **** 	if ( (handle > 0) && (handle < 5) && (usart_array[handle-1].isInUse == USART_IN_USE) )
 313              		.loc 1 91 0
 314 01e4 FB7B     		ldrb	r3, [r7, #15]	@ zero_extendqisi2
 315 01e6 002B     		cmp	r3, #0
 316 01e8 00F0E780 		beq	.L20
 317              		.loc 1 91 0 is_stmt 0 discriminator 1
 318 01ec FB7B     		ldrb	r3, [r7, #15]	@ zero_extendqisi2
 319 01ee 042B     		cmp	r3, #4
 320 01f0 00F2E380 		bhi	.L20
 321 01f4 FB7B     		ldrb	r3, [r7, #15]	@ zero_extendqisi2
 322 01f6 03F1FF32 		add	r2, r3, #-1
 323 01fa 40F20003 		movw	r3, #:lower16:usart_array
 324 01fe C0F20003 		movt	r3, #:upper16:usart_array
 325 0202 13F83230 		ldrb	r3, [r3, r2, lsl #3]	@ zero_extendqisi2
 326 0206 012B     		cmp	r3, #1
 327 0208 40F0D780 		bne	.L20
  92:usart.c       **** 	{
  93:usart.c       **** 		if ( (parity < 2) && ( (stop_bit > 0) &&  (stop_bit < 3) ) && ( (data_size > 4) && (data_size < 9
 328              		.loc 1 93 0 is_stmt 1
 329 020c FB79     		ldrb	r3, [r7, #7]	@ zero_extendqisi2
 330 020e 012B     		cmp	r3, #1
 331 0210 00F2D380 		bhi	.L20
 332              		.loc 1 93 0 is_stmt 0 discriminator 1
 333 0214 BB79     		ldrb	r3, [r7, #6]	@ zero_extendqisi2
 334 0216 002B     		cmp	r3, #0
 335 0218 00F0CF80 		beq	.L20
 336 021c BB79     		ldrb	r3, [r7, #6]	@ zero_extendqisi2
 337 021e 022B     		cmp	r3, #2
 338 0220 00F2CB80 		bhi	.L20
 339 0224 97F83830 		ldrb	r3, [r7, #56]	@ zero_extendqisi2
 340 0228 042B     		cmp	r3, #4
 341 022a 40F2C680 		bls	.L20
 342 022e 97F83830 		ldrb	r3, [r7, #56]	@ zero_extendqisi2
 343 0232 082B     		cmp	r3, #8
 344 0234 00F2C180 		bhi	.L20
  94:usart.c       **** 		{
  95:usart.c       **** 			divider=usart_calculate_divider(bitrate);
 345              		.loc 1 95 0 is_stmt 1
 346 0238 B868     		ldr	r0, [r7, #8]
 347 023a FFF7FEFF 		bl	usart_calculate_divider
 348 023e 0346     		mov	r3, r0
 349 0240 FB82     		strh	r3, [r7, #22]	@ movhi
  96:usart.c       **** 			if (divider != 0)
 350              		.loc 1 96 0
 351 0242 FB8A     		ldrh	r3, [r7, #22]
 352 0244 002B     		cmp	r3, #0
 353 0246 00F0B880 		beq	.L20
  97:usart.c       **** 			{
  98:usart.c       **** 				*U0LCR|=(1<<7); //Aktiviert den Zugriff auf die Divider-Register
 354              		.loc 1 98 0
ARM GAS  c:\Temp\ccEJtNXe.s 			page 9


 355 024a FB6A     		ldr	r3, [r7, #44]
 356 024c 1B68     		ldr	r3, [r3, #0]
 357 024e 43F08002 		orr	r2, r3, #128
 358 0252 FB6A     		ldr	r3, [r7, #44]
 359 0254 1A60     		str	r2, [r3, #0]
  99:usart.c       **** 				*U0DLL=(divider&0xFF);
 360              		.loc 1 99 0
 361 0256 FB8A     		ldrh	r3, [r7, #22]
 362 0258 03F0FF02 		and	r2, r3, #255
 363 025c BB6A     		ldr	r3, [r7, #40]
 364 025e 1A60     		str	r2, [r3, #0]
 100:usart.c       **** 				*U0DLM=((divider>>8)&0xFF);
 365              		.loc 1 100 0
 366 0260 FB8A     		ldrh	r3, [r7, #22]
 367 0262 4FEA1323 		lsr	r3, r3, #8
 368 0266 9BB2     		uxth	r3, r3
 369 0268 03F0FF02 		and	r2, r3, #255
 370 026c 7B6A     		ldr	r3, [r7, #36]
 371 026e 1A60     		str	r2, [r3, #0]
 101:usart.c       **** 				*U0LCR&=~(1<<7); //Deaktiviert den Zugriff auf die Divider-Register
 372              		.loc 1 101 0
 373 0270 FB6A     		ldr	r3, [r7, #44]
 374 0272 1B68     		ldr	r3, [r3, #0]
 375 0274 23F08002 		bic	r2, r3, #128
 376 0278 FB6A     		ldr	r3, [r7, #44]
 377 027a 1A60     		str	r2, [r3, #0]
 102:usart.c       **** 				switch (data_size)
 378              		.loc 1 102 0
 379 027c 97F83830 		ldrb	r3, [r7, #56]	@ zero_extendqisi2
 380 0280 A3F10503 		sub	r3, r3, #5
 381 0284 032B     		cmp	r3, #3
 382 0286 3FD8     		bhi	.L21
 383 0288 01A2     		adr	r2, .L26
 384 028a 52F823F0 		ldr	pc, [r2, r3, lsl #2]
 385 028e 00BF     		.align	2
 386              	.L26:
 387 0290 A1020000 		.word	.L22+1
 388 0294 BB020000 		.word	.L23+1
 389 0298 D5020000 		.word	.L24+1
 390 029c EF020000 		.word	.L25+1
 391              	.L22:
 103:usart.c       **** 				{
 104:usart.c       **** 					case 5	:	*U0LCR&=~(1<<0);
 392              		.loc 1 104 0
 393 02a0 FB6A     		ldr	r3, [r7, #44]
 394 02a2 1B68     		ldr	r3, [r3, #0]
 395 02a4 23F00102 		bic	r2, r3, #1
 396 02a8 FB6A     		ldr	r3, [r7, #44]
 397 02aa 1A60     		str	r2, [r3, #0]
 105:usart.c       **** 										*U0LCR&=~(1<<1);
 398              		.loc 1 105 0
 399 02ac FB6A     		ldr	r3, [r7, #44]
 400 02ae 1B68     		ldr	r3, [r3, #0]
 401 02b0 23F00202 		bic	r2, r3, #2
 402 02b4 FB6A     		ldr	r3, [r7, #44]
 403 02b6 1A60     		str	r2, [r3, #0]
 106:usart.c       **** 										break;
ARM GAS  c:\Temp\ccEJtNXe.s 			page 10


 404              		.loc 1 106 0
 405 02b8 26E0     		b	.L21
 406              	.L23:
 107:usart.c       **** 					case 6	:	*U0LCR|=(1<<0);
 407              		.loc 1 107 0
 408 02ba FB6A     		ldr	r3, [r7, #44]
 409 02bc 1B68     		ldr	r3, [r3, #0]
 410 02be 43F00102 		orr	r2, r3, #1
 411 02c2 FB6A     		ldr	r3, [r7, #44]
 412 02c4 1A60     		str	r2, [r3, #0]
 108:usart.c       **** 										*U0LCR&=~(1<<1);
 413              		.loc 1 108 0
 414 02c6 FB6A     		ldr	r3, [r7, #44]
 415 02c8 1B68     		ldr	r3, [r3, #0]
 416 02ca 23F00202 		bic	r2, r3, #2
 417 02ce FB6A     		ldr	r3, [r7, #44]
 418 02d0 1A60     		str	r2, [r3, #0]
 109:usart.c       **** 										break;
 419              		.loc 1 109 0
 420 02d2 19E0     		b	.L21
 421              	.L24:
 110:usart.c       **** 					case 7	:	*U0LCR&=~(1<<0);
 422              		.loc 1 110 0
 423 02d4 FB6A     		ldr	r3, [r7, #44]
 424 02d6 1B68     		ldr	r3, [r3, #0]
 425 02d8 23F00102 		bic	r2, r3, #1
 426 02dc FB6A     		ldr	r3, [r7, #44]
 427 02de 1A60     		str	r2, [r3, #0]
 111:usart.c       **** 										*U0LCR|=(1<<1);
 428              		.loc 1 111 0
 429 02e0 FB6A     		ldr	r3, [r7, #44]
 430 02e2 1B68     		ldr	r3, [r3, #0]
 431 02e4 43F00202 		orr	r2, r3, #2
 432 02e8 FB6A     		ldr	r3, [r7, #44]
 433 02ea 1A60     		str	r2, [r3, #0]
 112:usart.c       **** 										break;
 434              		.loc 1 112 0
 435 02ec 0CE0     		b	.L21
 436              	.L25:
 113:usart.c       **** 					case 8	:	*U0LCR|=(1<<0);
 437              		.loc 1 113 0
 438 02ee FB6A     		ldr	r3, [r7, #44]
 439 02f0 1B68     		ldr	r3, [r3, #0]
 440 02f2 43F00102 		orr	r2, r3, #1
 441 02f6 FB6A     		ldr	r3, [r7, #44]
 442 02f8 1A60     		str	r2, [r3, #0]
 114:usart.c       **** 										*U0LCR|=(1<<1);
 443              		.loc 1 114 0
 444 02fa FB6A     		ldr	r3, [r7, #44]
 445 02fc 1B68     		ldr	r3, [r3, #0]
 446 02fe 43F00202 		orr	r2, r3, #2
 447 0302 FB6A     		ldr	r3, [r7, #44]
 448 0304 1A60     		str	r2, [r3, #0]
 115:usart.c       **** 										break;
 449              		.loc 1 115 0
 450 0306 00BF     		nop
 451              	.L21:
ARM GAS  c:\Temp\ccEJtNXe.s 			page 11


 116:usart.c       **** 				}
 117:usart.c       **** 				if (stop_bit == 1)
 452              		.loc 1 117 0
 453 0308 BB79     		ldrb	r3, [r7, #6]	@ zero_extendqisi2
 454 030a 012B     		cmp	r3, #1
 455 030c 06D1     		bne	.L27
 118:usart.c       **** 				{
 119:usart.c       **** 					*U0LCR&=~(1<<2);
 456              		.loc 1 119 0
 457 030e FB6A     		ldr	r3, [r7, #44]
 458 0310 1B68     		ldr	r3, [r3, #0]
 459 0312 23F00402 		bic	r2, r3, #4
 460 0316 FB6A     		ldr	r3, [r7, #44]
 461 0318 1A60     		str	r2, [r3, #0]
 462 031a 05E0     		b	.L28
 463              	.L27:
 120:usart.c       **** 				}
 121:usart.c       **** 				else
 122:usart.c       **** 				{
 123:usart.c       **** 					*U0LCR|=(1<<2);
 464              		.loc 1 123 0
 465 031c FB6A     		ldr	r3, [r7, #44]
 466 031e 1B68     		ldr	r3, [r3, #0]
 467 0320 43F00402 		orr	r2, r3, #4
 468 0324 FB6A     		ldr	r3, [r7, #44]
 469 0326 1A60     		str	r2, [r3, #0]
 470              	.L28:
 124:usart.c       **** 				}
 125:usart.c       **** 				if (parity == 1)
 471              		.loc 1 125 0
 472 0328 FB79     		ldrb	r3, [r7, #7]	@ zero_extendqisi2
 473 032a 012B     		cmp	r3, #1
 474 032c 06D1     		bne	.L29
 126:usart.c       **** 				{
 127:usart.c       **** 					*U0LCR|=(1<<3);
 475              		.loc 1 127 0
 476 032e FB6A     		ldr	r3, [r7, #44]
 477 0330 1B68     		ldr	r3, [r3, #0]
 478 0332 43F00802 		orr	r2, r3, #8
 479 0336 FB6A     		ldr	r3, [r7, #44]
 480 0338 1A60     		str	r2, [r3, #0]
 481 033a 05E0     		b	.L30
 482              	.L29:
 128:usart.c       **** 				}
 129:usart.c       **** 				else
 130:usart.c       **** 				{
 131:usart.c       **** 					*U0LCR&=~(1<<3);
 483              		.loc 1 131 0
 484 033c FB6A     		ldr	r3, [r7, #44]
 485 033e 1B68     		ldr	r3, [r3, #0]
 486 0340 23F00802 		bic	r2, r3, #8
 487 0344 FB6A     		ldr	r3, [r7, #44]
 488 0346 1A60     		str	r2, [r3, #0]
 489              	.L30:
 132:usart.c       **** 				}
 133:usart.c       **** 				*U0FCR|=(1<<0);
 490              		.loc 1 133 0
ARM GAS  c:\Temp\ccEJtNXe.s 			page 12


 491 0348 3B6A     		ldr	r3, [r7, #32]
 492 034a 1B68     		ldr	r3, [r3, #0]
 493 034c 43F00102 		orr	r2, r3, #1
 494 0350 3B6A     		ldr	r3, [r7, #32]
 495 0352 1A60     		str	r2, [r3, #0]
 134:usart.c       **** 				*PINSEL0|=(1<<4); //P0.2=TXD0
 496              		.loc 1 134 0
 497 0354 FB69     		ldr	r3, [r7, #28]
 498 0356 1B68     		ldr	r3, [r3, #0]
 499 0358 43F01002 		orr	r2, r3, #16
 500 035c FB69     		ldr	r3, [r7, #28]
 501 035e 1A60     		str	r2, [r3, #0]
 135:usart.c       **** 				*PINSEL0&=~(1<<5); //P0.2=TXD0
 502              		.loc 1 135 0
 503 0360 FB69     		ldr	r3, [r7, #28]
 504 0362 1B68     		ldr	r3, [r3, #0]
 505 0364 23F02002 		bic	r2, r3, #32
 506 0368 FB69     		ldr	r3, [r7, #28]
 507 036a 1A60     		str	r2, [r3, #0]
 136:usart.c       **** 				*PINSEL0|=(1<<6); //P0.3=RXD0
 508              		.loc 1 136 0
 509 036c FB69     		ldr	r3, [r7, #28]
 510 036e 1B68     		ldr	r3, [r3, #0]
 511 0370 43F04002 		orr	r2, r3, #64
 512 0374 FB69     		ldr	r3, [r7, #28]
 513 0376 1A60     		str	r2, [r3, #0]
 137:usart.c       **** 				*PINSEL0&=~(1<<7); //P0.3=RXD0
 514              		.loc 1 137 0
 515 0378 FB69     		ldr	r3, [r7, #28]
 516 037a 1B68     		ldr	r3, [r3, #0]
 517 037c 23F08002 		bic	r2, r3, #128
 518 0380 FB69     		ldr	r3, [r7, #28]
 519 0382 1A60     		str	r2, [r3, #0]
 138:usart.c       **** 				*PINMODE0&=~(1<<4); //P0.2 Kein Pull-Up, kein Pull-Down
 520              		.loc 1 138 0
 521 0384 BB69     		ldr	r3, [r7, #24]
 522 0386 1B68     		ldr	r3, [r3, #0]
 523 0388 23F01002 		bic	r2, r3, #16
 524 038c BB69     		ldr	r3, [r7, #24]
 525 038e 1A60     		str	r2, [r3, #0]
 139:usart.c       **** 				*PINMODE0|=(1<<5); //P0.2 Kein Pull-Up, kein Pull-Down
 526              		.loc 1 139 0
 527 0390 BB69     		ldr	r3, [r7, #24]
 528 0392 1B68     		ldr	r3, [r3, #0]
 529 0394 43F02002 		orr	r2, r3, #32
 530 0398 BB69     		ldr	r3, [r7, #24]
 531 039a 1A60     		str	r2, [r3, #0]
 140:usart.c       **** 				*PINMODE0&=~(1<<6); //P0.3 Kein Pull-Up, kein Pull-Down
 532              		.loc 1 140 0
 533 039c BB69     		ldr	r3, [r7, #24]
 534 039e 1B68     		ldr	r3, [r3, #0]
 535 03a0 23F04002 		bic	r2, r3, #64
 536 03a4 BB69     		ldr	r3, [r7, #24]
 537 03a6 1A60     		str	r2, [r3, #0]
 141:usart.c       **** 				*PINMODE0|=(1<<7); //P0.3 Kein Pull-Up, kein Pull-Down
 538              		.loc 1 141 0
 539 03a8 BB69     		ldr	r3, [r7, #24]
ARM GAS  c:\Temp\ccEJtNXe.s 			page 13


 540 03aa 1B68     		ldr	r3, [r3, #0]
 541 03ac 43F08002 		orr	r2, r3, #128
 542 03b0 BB69     		ldr	r3, [r7, #24]
 543 03b2 1A60     		str	r2, [r3, #0]
 142:usart.c       **** 				
 143:usart.c       **** 				return RETURN_SUCCESS;
 544              		.loc 1 143 0
 545 03b4 4FF00003 		mov	r3, #0
 546 03b8 01E0     		b	.L31
 547              	.L20:
 144:usart.c       **** 			}
 145:usart.c       **** 		}
 146:usart.c       **** 	}
 147:usart.c       **** 	return RETURN_FAIL;
 548              		.loc 1 147 0
 549 03ba 4FF00103 		mov	r3, #1
 550              	.L31:
 148:usart.c       **** }
 551              		.loc 1 148 0
 552 03be 1846     		mov	r0, r3
 553 03c0 07F13007 		add	r7, r7, #48
 554 03c4 BD46     		mov	sp, r7
 555 03c6 80BD     		pop	{r7, pc}
 556              		.cfi_endproc
 557              	.LFE58:
 558              		.size	usart_configure, .-usart_configure
 559              		.align	2
 560              		.global	usart_read
 561              		.thumb
 562              		.thumb_func
 563              		.type	usart_read, %function
 564              	usart_read:
 565              	.LFB59:
 149:usart.c       **** 
 150:usart.c       **** uint8_t usart_read(uint8_t handle, uint8_t *destination, uint8_t read_length)
 151:usart.c       **** {
 566              		.loc 1 151 0
 567              		.cfi_startproc
 568              		@ args = 0, pretend = 0, frame = 40
 569              		@ frame_needed = 1, uses_anonymous_args = 0
 570              		@ link register save eliminated.
 571 03c8 80B4     		push	{r7}
 572              	.LCFI9:
 573              		.cfi_def_cfa_offset 4
 574 03ca 8BB0     		sub	sp, sp, #44
 575              	.LCFI10:
 576              		.cfi_def_cfa_offset 48
 577 03cc 00AF     		add	r7, sp, #0
 578              		.cfi_offset 7, -4
 579              	.LCFI11:
 580              		.cfi_def_cfa_register 7
 581 03ce B960     		str	r1, [r7, #8]
 582 03d0 1346     		mov	r3, r2
 583 03d2 0246     		mov	r2, r0
 584 03d4 FA73     		strb	r2, [r7, #15]
 585 03d6 FB71     		strb	r3, [r7, #7]
 152:usart.c       **** 	uintptr_t *UxLSR;
ARM GAS  c:\Temp\ccEJtNXe.s 			page 14


 153:usart.c       **** 	uintptr_t *UxFIFOLVL;
 154:usart.c       **** 	uintptr_t *UxRBR;
 155:usart.c       **** 	uint8_t rx_fifo_level; //Füllstand des Empfangspuffers
 156:usart.c       **** 	uint8_t bytes_read; //Anzahl der Bytes die gelesen wurden
 157:usart.c       **** 	
 158:usart.c       **** 	bytes_read=0;
 586              		.loc 1 158 0
 587 03d8 4FF00003 		mov	r3, #0
 588 03dc 87F82730 		strb	r3, [r7, #39]
 159:usart.c       **** 	
 160:usart.c       **** 	if ( (handle > 0) && (handle < 5) && (usart_array[handle-1].isInUse == USART_IN_USE) )
 589              		.loc 1 160 0
 590 03e0 FB7B     		ldrb	r3, [r7, #15]	@ zero_extendqisi2
 591 03e2 002B     		cmp	r3, #0
 592 03e4 65D0     		beq	.L33
 593              		.loc 1 160 0 is_stmt 0 discriminator 1
 594 03e6 FB7B     		ldrb	r3, [r7, #15]	@ zero_extendqisi2
 595 03e8 042B     		cmp	r3, #4
 596 03ea 62D8     		bhi	.L33
 597 03ec FB7B     		ldrb	r3, [r7, #15]	@ zero_extendqisi2
 598 03ee 03F1FF32 		add	r2, r3, #-1
 599 03f2 40F20003 		movw	r3, #:lower16:usart_array
 600 03f6 C0F20003 		movt	r3, #:upper16:usart_array
 601 03fa 13F83230 		ldrb	r3, [r3, r2, lsl #3]	@ zero_extendqisi2
 602 03fe 012B     		cmp	r3, #1
 603 0400 57D1     		bne	.L33
 161:usart.c       **** 	{
 162:usart.c       **** 		UxLSR=(uintptr_t *)usart_array[handle-1].start_register+UART_LSR_OFFSET;
 604              		.loc 1 162 0 is_stmt 1
 605 0402 FB7B     		ldrb	r3, [r7, #15]	@ zero_extendqisi2
 606 0404 03F1FF33 		add	r3, r3, #-1
 607 0408 40F20002 		movw	r2, #:lower16:usart_array
 608 040c C0F20002 		movt	r2, #:upper16:usart_array
 609 0410 4FEAC303 		lsl	r3, r3, #3
 610 0414 D318     		adds	r3, r2, r3
 611 0416 5B68     		ldr	r3, [r3, #4]
 612 0418 03F13803 		add	r3, r3, #56
 613 041c 3B62     		str	r3, [r7, #32]
 163:usart.c       **** 		UxFIFOLVL=(uintptr_t *)usart_array[handle-1].start_register+UART_LSR_OFFSET;
 614              		.loc 1 163 0
 615 041e FB7B     		ldrb	r3, [r7, #15]	@ zero_extendqisi2
 616 0420 03F1FF33 		add	r3, r3, #-1
 617 0424 40F20002 		movw	r2, #:lower16:usart_array
 618 0428 C0F20002 		movt	r2, #:upper16:usart_array
 619 042c 4FEAC303 		lsl	r3, r3, #3
 620 0430 D318     		adds	r3, r2, r3
 621 0432 5B68     		ldr	r3, [r3, #4]
 622 0434 03F13803 		add	r3, r3, #56
 623 0438 FB61     		str	r3, [r7, #28]
 164:usart.c       **** 		UxRBR=usart_array[handle-1].start_register;
 624              		.loc 1 164 0
 625 043a FB7B     		ldrb	r3, [r7, #15]	@ zero_extendqisi2
 626 043c 03F1FF33 		add	r3, r3, #-1
 627 0440 40F20002 		movw	r2, #:lower16:usart_array
 628 0444 C0F20002 		movt	r2, #:upper16:usart_array
 629 0448 4FEAC303 		lsl	r3, r3, #3
 630 044c D318     		adds	r3, r2, r3
ARM GAS  c:\Temp\ccEJtNXe.s 			page 15


 631 044e 5B68     		ldr	r3, [r3, #4]
 632 0450 BB61     		str	r3, [r7, #24]
 165:usart.c       **** 		if ( (read_length > 0) && (read_length < 17) && (destination != NULL) )
 633              		.loc 1 165 0
 634 0452 FB79     		ldrb	r3, [r7, #7]	@ zero_extendqisi2
 635 0454 002B     		cmp	r3, #0
 636 0456 2CD0     		beq	.L33
 637              		.loc 1 165 0 is_stmt 0 discriminator 1
 638 0458 FB79     		ldrb	r3, [r7, #7]	@ zero_extendqisi2
 639 045a 102B     		cmp	r3, #16
 640 045c 29D8     		bhi	.L33
 641 045e BB68     		ldr	r3, [r7, #8]
 642 0460 002B     		cmp	r3, #0
 643 0462 26D0     		beq	.L33
 166:usart.c       **** 		{
 167:usart.c       **** 			if ( ((*UxLSR)&(1<<0)) == 1)
 644              		.loc 1 167 0 is_stmt 1
 645 0464 3B6A     		ldr	r3, [r7, #32]
 646 0466 1B68     		ldr	r3, [r3, #0]
 647 0468 03F00103 		and	r3, r3, #1
 648 046c DBB2     		uxtb	r3, r3
 649 046e 002B     		cmp	r3, #0
 650 0470 1FD0     		beq	.L33
 168:usart.c       **** 			{
 169:usart.c       **** 				rx_fifo_level=*UxFIFOLVL&((1<<0)+(1<<1)+(1<<2));
 651              		.loc 1 169 0
 652 0472 FB69     		ldr	r3, [r7, #28]
 653 0474 1B68     		ldr	r3, [r3, #0]
 654 0476 DBB2     		uxtb	r3, r3
 655 0478 03F00703 		and	r3, r3, #7
 656 047c FB75     		strb	r3, [r7, #23]
 170:usart.c       **** 				while ( ( ((*UxLSR)&(1<<0)) == 1) && (read_length > 0) )
 657              		.loc 1 170 0
 658 047e 0EE0     		b	.L34
 659              	.L35:
 171:usart.c       **** 				{
 172:usart.c       **** 					*destination=*UxRBR;
 660              		.loc 1 172 0
 661 0480 BB69     		ldr	r3, [r7, #24]
 662 0482 1B68     		ldr	r3, [r3, #0]
 663 0484 DAB2     		uxtb	r2, r3
 664 0486 BB68     		ldr	r3, [r7, #8]
 665 0488 1A70     		strb	r2, [r3, #0]
 173:usart.c       **** 					destination++;
 666              		.loc 1 173 0
 667 048a BB68     		ldr	r3, [r7, #8]
 668 048c 03F10103 		add	r3, r3, #1
 669 0490 BB60     		str	r3, [r7, #8]
 174:usart.c       **** 					bytes_read++;
 670              		.loc 1 174 0
 671 0492 97F82730 		ldrb	r3, [r7, #39]
 672 0496 03F10103 		add	r3, r3, #1
 673 049a 87F82730 		strb	r3, [r7, #39]
 674              	.L34:
 170:usart.c       **** 				while ( ( ((*UxLSR)&(1<<0)) == 1) && (read_length > 0) )
 675              		.loc 1 170 0 discriminator 1
 676 049e 3B6A     		ldr	r3, [r7, #32]
ARM GAS  c:\Temp\ccEJtNXe.s 			page 16


 677 04a0 1B68     		ldr	r3, [r3, #0]
 678 04a2 03F00103 		and	r3, r3, #1
 679 04a6 DBB2     		uxtb	r3, r3
 680 04a8 002B     		cmp	r3, #0
 681 04aa 02D0     		beq	.L33
 170:usart.c       **** 				while ( ( ((*UxLSR)&(1<<0)) == 1) && (read_length > 0) )
 682              		.loc 1 170 0 is_stmt 0 discriminator 2
 683 04ac FB79     		ldrb	r3, [r7, #7]	@ zero_extendqisi2
 684 04ae 002B     		cmp	r3, #0
 685 04b0 E6D1     		bne	.L35
 686              	.L33:
 175:usart.c       **** 				}
 176:usart.c       **** 
 177:usart.c       **** 			}
 178:usart.c       **** 		}
 179:usart.c       **** 	}
 180:usart.c       **** 	return bytes_read;
 687              		.loc 1 180 0 is_stmt 1
 688 04b2 97F82730 		ldrb	r3, [r7, #39]	@ zero_extendqisi2
 181:usart.c       **** }
 689              		.loc 1 181 0
 690 04b6 1846     		mov	r0, r3
 691 04b8 07F12C07 		add	r7, r7, #44
 692 04bc BD46     		mov	sp, r7
 693 04be 80BC     		pop	{r7}
 694 04c0 7047     		bx	lr
 695              		.cfi_endproc
 696              	.LFE59:
 697              		.size	usart_read, .-usart_read
 698 04c2 00BF     		.align	2
 699              		.global	usart_write
 700              		.thumb
 701              		.thumb_func
 702              		.type	usart_write, %function
 703              	usart_write:
 704              	.LFB60:
 182:usart.c       **** 
 183:usart.c       **** uint8_t usart_write(uint8_t handle, uint8_t *source, uint8_t length)
 184:usart.c       **** {
 705              		.loc 1 184 0
 706              		.cfi_startproc
 707              		@ args = 0, pretend = 0, frame = 32
 708              		@ frame_needed = 1, uses_anonymous_args = 0
 709              		@ link register save eliminated.
 710 04c4 80B4     		push	{r7}
 711              	.LCFI12:
 712              		.cfi_def_cfa_offset 4
 713 04c6 89B0     		sub	sp, sp, #36
 714              	.LCFI13:
 715              		.cfi_def_cfa_offset 40
 716 04c8 00AF     		add	r7, sp, #0
 717              		.cfi_offset 7, -4
 718              	.LCFI14:
 719              		.cfi_def_cfa_register 7
 720 04ca B960     		str	r1, [r7, #8]
 721 04cc 1346     		mov	r3, r2
 722 04ce 0246     		mov	r2, r0
ARM GAS  c:\Temp\ccEJtNXe.s 			page 17


 723 04d0 FA73     		strb	r2, [r7, #15]
 724 04d2 FB71     		strb	r3, [r7, #7]
 185:usart.c       **** 	uintptr_t *U0THR;
 186:usart.c       **** 	uintptr_t *U0LSR;
 187:usart.c       **** 	uint8_t i;
 188:usart.c       **** 	
 189:usart.c       **** 	//Implementierung nur für USART0
 190:usart.c       **** 	U0THR=0x4000C000;
 725              		.loc 1 190 0
 726 04d4 4FF44043 		mov	r3, #49152
 727 04d8 C4F20003 		movt	r3, 16384
 728 04dc BB61     		str	r3, [r7, #24]
 191:usart.c       **** 	U0LSR=0x4000C014;
 729              		.loc 1 191 0
 730 04de 4CF21403 		movw	r3, #49172
 731 04e2 C4F20003 		movt	r3, 16384
 732 04e6 7B61     		str	r3, [r7, #20]
 192:usart.c       **** 	
 193:usart.c       **** 	if ( (handle > 0) && (handle < 5) && (usart_array[handle-1].isInUse == USART_IN_USE) )
 733              		.loc 1 193 0
 734 04e8 FB7B     		ldrb	r3, [r7, #15]	@ zero_extendqisi2
 735 04ea 002B     		cmp	r3, #0
 736 04ec 33D0     		beq	.L37
 737              		.loc 1 193 0 is_stmt 0 discriminator 1
 738 04ee FB7B     		ldrb	r3, [r7, #15]	@ zero_extendqisi2
 739 04f0 042B     		cmp	r3, #4
 740 04f2 30D8     		bhi	.L37
 741 04f4 FB7B     		ldrb	r3, [r7, #15]	@ zero_extendqisi2
 742 04f6 03F1FF32 		add	r2, r3, #-1
 743 04fa 40F20003 		movw	r3, #:lower16:usart_array
 744 04fe C0F20003 		movt	r3, #:upper16:usart_array
 745 0502 13F83230 		ldrb	r3, [r3, r2, lsl #3]	@ zero_extendqisi2
 746 0506 012B     		cmp	r3, #1
 747 0508 25D1     		bne	.L37
 194:usart.c       **** 	{
 195:usart.c       **** 		if ( (source != NULL) && (length > 0) )
 748              		.loc 1 195 0 is_stmt 1
 749 050a BB68     		ldr	r3, [r7, #8]
 750 050c 002B     		cmp	r3, #0
 751 050e 22D0     		beq	.L37
 752              		.loc 1 195 0 is_stmt 0 discriminator 1
 753 0510 FB79     		ldrb	r3, [r7, #7]	@ zero_extendqisi2
 754 0512 002B     		cmp	r3, #0
 755 0514 1FD0     		beq	.L37
 196:usart.c       **** 		{
 197:usart.c       **** 			i=0;
 756              		.loc 1 197 0 is_stmt 1
 757 0516 4FF00003 		mov	r3, #0
 758 051a FB77     		strb	r3, [r7, #31]
 198:usart.c       **** 			while (length > 0)
 759              		.loc 1 198 0
 760 051c 15E0     		b	.L38
 761              	.L40:
 199:usart.c       **** 			{
 200:usart.c       **** 				length--;
 762              		.loc 1 200 0
 763 051e FB79     		ldrb	r3, [r7, #7]
ARM GAS  c:\Temp\ccEJtNXe.s 			page 18


 764 0520 03F1FF33 		add	r3, r3, #-1
 765 0524 FB71     		strb	r3, [r7, #7]
 201:usart.c       **** 				while ( (*U0LSR&(1<<5)) == 0)
 766              		.loc 1 201 0
 767 0526 00BF     		nop
 768              	.L39:
 769              		.loc 1 201 0 is_stmt 0 discriminator 1
 770 0528 7B69     		ldr	r3, [r7, #20]
 771 052a 1B68     		ldr	r3, [r3, #0]
 772 052c 03F02003 		and	r3, r3, #32
 773 0530 002B     		cmp	r3, #0
 774 0532 F9D0     		beq	.L39
 202:usart.c       **** 				{}
 203:usart.c       **** 				*U0THR=source[i++];
 775              		.loc 1 203 0 is_stmt 1
 776 0534 FB7F     		ldrb	r3, [r7, #31]	@ zero_extendqisi2
 777 0536 BA68     		ldr	r2, [r7, #8]
 778 0538 D318     		adds	r3, r2, r3
 779 053a 1B78     		ldrb	r3, [r3, #0]	@ zero_extendqisi2
 780 053c 1A46     		mov	r2, r3
 781 053e BB69     		ldr	r3, [r7, #24]
 782 0540 1A60     		str	r2, [r3, #0]
 783 0542 FB7F     		ldrb	r3, [r7, #31]
 784 0544 03F10103 		add	r3, r3, #1
 785 0548 FB77     		strb	r3, [r7, #31]
 786              	.L38:
 198:usart.c       **** 			while (length > 0)
 787              		.loc 1 198 0 discriminator 1
 788 054a FB79     		ldrb	r3, [r7, #7]	@ zero_extendqisi2
 789 054c 002B     		cmp	r3, #0
 790 054e E6D1     		bne	.L40
 204:usart.c       **** 			}
 205:usart.c       **** 			return RETURN_SUCCESS;
 791              		.loc 1 205 0
 792 0550 4FF00003 		mov	r3, #0
 793 0554 01E0     		b	.L41
 794              	.L37:
 206:usart.c       **** 		}
 207:usart.c       **** 	}
 208:usart.c       **** 	return RETURN_FAIL;
 795              		.loc 1 208 0
 796 0556 4FF00103 		mov	r3, #1
 797              	.L41:
 209:usart.c       **** }
 798              		.loc 1 209 0
 799 055a 1846     		mov	r0, r3
 800 055c 07F12407 		add	r7, r7, #36
 801 0560 BD46     		mov	sp, r7
 802 0562 80BC     		pop	{r7}
 803 0564 7047     		bx	lr
 804              		.cfi_endproc
 805              	.LFE60:
 806              		.size	usart_write, .-usart_write
 807 0566 00BF     		.align	2
 808              		.global	usart_close
 809              		.thumb
 810              		.thumb_func
ARM GAS  c:\Temp\ccEJtNXe.s 			page 19


 811              		.type	usart_close, %function
 812              	usart_close:
 813              	.LFB61:
 210:usart.c       **** 
 211:usart.c       **** uint8_t usart_close(uint8_t handle)
 212:usart.c       **** {
 814              		.loc 1 212 0
 815              		.cfi_startproc
 816              		@ args = 0, pretend = 0, frame = 16
 817              		@ frame_needed = 1, uses_anonymous_args = 0
 818              		@ link register save eliminated.
 819 0568 80B4     		push	{r7}
 820              	.LCFI15:
 821              		.cfi_def_cfa_offset 4
 822 056a 85B0     		sub	sp, sp, #20
 823              	.LCFI16:
 824              		.cfi_def_cfa_offset 24
 825 056c 00AF     		add	r7, sp, #0
 826              		.cfi_offset 7, -4
 827              	.LCFI17:
 828              		.cfi_def_cfa_register 7
 829 056e 0346     		mov	r3, r0
 830 0570 FB71     		strb	r3, [r7, #7]
 213:usart.c       **** 	uintptr_t *PCONP; //Power Control for Peripherals Register
 214:usart.c       **** 	PCONP=(uintptr_t *)PCONP_REGISTER;
 831              		.loc 1 214 0
 832 0572 4CF2C403 		movw	r3, #49348
 833 0576 C4F20F03 		movt	r3, 16399
 834 057a FB60     		str	r3, [r7, #12]
 215:usart.c       **** 	
 216:usart.c       **** 	if ( (handle > 0) && (handle < 5) && (usart_array[handle-1].isInUse == USART_IN_USE) )
 835              		.loc 1 216 0
 836 057c FB79     		ldrb	r3, [r7, #7]	@ zero_extendqisi2
 837 057e 002B     		cmp	r3, #0
 838 0580 3DD0     		beq	.L43
 839              		.loc 1 216 0 is_stmt 0 discriminator 1
 840 0582 FB79     		ldrb	r3, [r7, #7]	@ zero_extendqisi2
 841 0584 042B     		cmp	r3, #4
 842 0586 3AD8     		bhi	.L43
 843 0588 FB79     		ldrb	r3, [r7, #7]	@ zero_extendqisi2
 844 058a 03F1FF32 		add	r2, r3, #-1
 845 058e 40F20003 		movw	r3, #:lower16:usart_array
 846 0592 C0F20003 		movt	r3, #:upper16:usart_array
 847 0596 13F83230 		ldrb	r3, [r3, r2, lsl #3]	@ zero_extendqisi2
 848 059a 012B     		cmp	r3, #1
 849 059c 2FD1     		bne	.L43
 217:usart.c       **** 	{
 218:usart.c       **** 		switch (handle)
 850              		.loc 1 218 0 is_stmt 1
 851 059e FB79     		ldrb	r3, [r7, #7]	@ zero_extendqisi2
 852 05a0 03F1FF33 		add	r3, r3, #-1
 853 05a4 032B     		cmp	r3, #3
 854 05a6 27D8     		bhi	.L44
 855 05a8 01A2     		adr	r2, .L49
 856 05aa 52F823F0 		ldr	pc, [r2, r3, lsl #2]
 857 05ae 00BF     		.align	2
 858              	.L49:
ARM GAS  c:\Temp\ccEJtNXe.s 			page 20


 859 05b0 C1050000 		.word	.L45+1
 860 05b4 CF050000 		.word	.L46+1
 861 05b8 DD050000 		.word	.L47+1
 862 05bc EB050000 		.word	.L48+1
 863              	.L45:
 219:usart.c       **** 		{
 220:usart.c       **** 			case 1	:	*PCONP&=~(1<<3);
 864              		.loc 1 220 0
 865 05c0 FB68     		ldr	r3, [r7, #12]
 866 05c2 1B68     		ldr	r3, [r3, #0]
 867 05c4 23F00802 		bic	r2, r3, #8
 868 05c8 FB68     		ldr	r3, [r7, #12]
 869 05ca 1A60     		str	r2, [r3, #0]
 221:usart.c       **** 								break;
 870              		.loc 1 221 0
 871 05cc 14E0     		b	.L44
 872              	.L46:
 222:usart.c       **** 			case 2	:	*PCONP&=~(1<<4);
 873              		.loc 1 222 0
 874 05ce FB68     		ldr	r3, [r7, #12]
 875 05d0 1B68     		ldr	r3, [r3, #0]
 876 05d2 23F01002 		bic	r2, r3, #16
 877 05d6 FB68     		ldr	r3, [r7, #12]
 878 05d8 1A60     		str	r2, [r3, #0]
 223:usart.c       **** 								break;
 879              		.loc 1 223 0
 880 05da 0DE0     		b	.L44
 881              	.L47:
 224:usart.c       **** 			case 3	:	*PCONP&=~(1<<24);
 882              		.loc 1 224 0
 883 05dc FB68     		ldr	r3, [r7, #12]
 884 05de 1B68     		ldr	r3, [r3, #0]
 885 05e0 23F08072 		bic	r2, r3, #16777216
 886 05e4 FB68     		ldr	r3, [r7, #12]
 887 05e6 1A60     		str	r2, [r3, #0]
 225:usart.c       **** 								break;
 888              		.loc 1 225 0
 889 05e8 06E0     		b	.L44
 890              	.L48:
 226:usart.c       **** 			case 4	:	*PCONP&=~(1<<25);
 891              		.loc 1 226 0
 892 05ea FB68     		ldr	r3, [r7, #12]
 893 05ec 1B68     		ldr	r3, [r3, #0]
 894 05ee 23F00072 		bic	r2, r3, #33554432
 895 05f2 FB68     		ldr	r3, [r7, #12]
 896 05f4 1A60     		str	r2, [r3, #0]
 227:usart.c       **** 								break;
 897              		.loc 1 227 0
 898 05f6 00BF     		nop
 899              	.L44:
 228:usart.c       **** 		}
 229:usart.c       **** 		return RETURN_SUCCESS;
 900              		.loc 1 229 0
 901 05f8 4FF00003 		mov	r3, #0
 902 05fc 01E0     		b	.L50
 903              	.L43:
 230:usart.c       **** 	}
ARM GAS  c:\Temp\ccEJtNXe.s 			page 21


 231:usart.c       **** 	return RETURN_FAIL;
 904              		.loc 1 231 0
 905 05fe 4FF00103 		mov	r3, #1
 906              	.L50:
 232:usart.c       **** }
 907              		.loc 1 232 0
 908 0602 1846     		mov	r0, r3
 909 0604 07F11407 		add	r7, r7, #20
 910 0608 BD46     		mov	sp, r7
 911 060a 80BC     		pop	{r7}
 912 060c 7047     		bx	lr
 913              		.cfi_endproc
 914              	.LFE61:
 915              		.size	usart_close, .-usart_close
 916 060e 00BF     		.align	2
 917              		.global	usart_calculate_divider
 918              		.thumb
 919              		.thumb_func
 920              		.type	usart_calculate_divider, %function
 921              	usart_calculate_divider:
 922              	.LFB62:
 233:usart.c       **** 
 234:usart.c       **** uint16_t usart_calculate_divider(uint32_t baudrate)
 235:usart.c       **** {
 923              		.loc 1 235 0
 924              		.cfi_startproc
 925              		@ args = 0, pretend = 0, frame = 16
 926              		@ frame_needed = 1, uses_anonymous_args = 0
 927              		@ link register save eliminated.
 928 0610 80B4     		push	{r7}
 929              	.LCFI18:
 930              		.cfi_def_cfa_offset 4
 931 0612 85B0     		sub	sp, sp, #20
 932              	.LCFI19:
 933              		.cfi_def_cfa_offset 24
 934 0614 00AF     		add	r7, sp, #0
 935              		.cfi_offset 7, -4
 936              	.LCFI20:
 937              		.cfi_def_cfa_register 7
 938 0616 7860     		str	r0, [r7, #4]
 236:usart.c       **** 	uint16_t returnvalue;
 237:usart.c       **** 	if ( baudrate <= 115200 )
 939              		.loc 1 237 0
 940 0618 7B68     		ldr	r3, [r7, #4]
 941 061a B3F5E13F 		cmp	r3, #115200
 942 061e 0BD8     		bhi	.L52
 238:usart.c       **** 	{
 239:usart.c       **** 		returnvalue=(18000000/(baudrate*16));
 943              		.loc 1 239 0
 944 0620 7B68     		ldr	r3, [r7, #4]
 945 0622 4FEA0312 		lsl	r2, r3, #4
 946 0626 4AF68003 		movw	r3, #43136
 947 062a C0F21213 		movt	r3, 274
 948 062e B3FBF2F3 		udiv	r3, r3, r2
 949 0632 FB81     		strh	r3, [r7, #14]	@ movhi
 240:usart.c       **** 		return returnvalue;
 950              		.loc 1 240 0
ARM GAS  c:\Temp\ccEJtNXe.s 			page 22


 951 0634 FB89     		ldrh	r3, [r7, #14]
 952 0636 01E0     		b	.L53
 953              	.L52:
 241:usart.c       **** 	}
 242:usart.c       **** 	return 0;
 954              		.loc 1 242 0
 955 0638 4FF00003 		mov	r3, #0
 956              	.L53:
 243:usart.c       **** }...
 957              		.loc 1 243 0
 958 063c 1846     		mov	r0, r3
 959 063e 07F11407 		add	r7, r7, #20
 960 0642 BD46     		mov	sp, r7
 961 0644 80BC     		pop	{r7}
 962 0646 7047     		bx	lr
 963              		.cfi_endproc
 964              	.LFE62:
 965              		.size	usart_calculate_divider, .-usart_calculate_divider
 966              	.Letext0: